ARM GAS  C:\Users\Usuario\AppData\Local\Temp\ccAb1MNX.s 			page 1


   1              		.syntax unified
   2              		.cpu cortex-m3
   3              		.fpu softvfp
   4              		.eabi_attribute 20, 1
   5              		.eabi_attribute 21, 1
   6              		.eabi_attribute 23, 3
   7              		.eabi_attribute 24, 1
   8              		.eabi_attribute 25, 1
   9              		.eabi_attribute 26, 1
  10              		.eabi_attribute 30, 1
  11              		.eabi_attribute 34, 1
  12              		.eabi_attribute 18, 4
  13              		.thumb
  14              		.syntax unified
  15              		.file	"main.c"
  16              		.text
  17              	.Ltext0:
  18              		.cfi_sections	.debug_frame
  19              		.section	.text.ISR_counter,"ax",%progbits
  20              		.align	2
  21              		.global	ISR_counter
  22              		.thumb
  23              		.thumb_func
  24              		.type	ISR_counter, %function
  25              	ISR_counter:
  26              	.LFB64:
  27              		.file 1 "main.c"
   1:main.c        **** /* ========================================
   2:main.c        ****  *
   3:main.c        ****  * Copyright YOUR COMPANY, THE YEAR
   4:main.c        ****  * All Rights Reserved
   5:main.c        ****  * UNPUBLISHED, LICENSED SOFTWARE.
   6:main.c        ****  *
   7:main.c        ****  * CONFIDENTIAL AND PROPRIETARY INFORMATION
   8:main.c        ****  * WHICH IS THE PROPERTY OF your company.
   9:main.c        ****  *
  10:main.c        ****  * ========================================
  11:main.c        **** */
  12:main.c        **** #include "project.h"
  13:main.c        **** CY_ISR_PROTO(ISR_counter);//intrrrup contador
  14:main.c        **** CY_ISR_PROTO(ISR_Tarado);
  15:main.c        **** uint16 ban_cont=0;
  16:main.c        **** uint16 ban_cont1=0;
  17:main.c        **** uint8 ban_boton=0;
  18:main.c        **** uint8 ban_neg=0;
  19:main.c        **** uint16 b=270;//CAMBIAR
  20:main.c        **** uint16 z=700;//CAMBIAR
  21:main.c        **** uint16 m=749;//CAMBIAR
  22:main.c        **** uint16 cont=0;//contador muestras 
  23:main.c        **** uint32 VADC=0;
  24:main.c        **** uint32 VADC_prom=0;
  25:main.c        **** uint32 Peso=0;
  26:main.c        **** uint32 ReadCount(void);
  27:main.c        **** 
  28:main.c        **** int main(void)
  29:main.c        **** {
  30:main.c        ****  
ARM GAS  C:\Users\Usuario\AppData\Local\Temp\ccAb1MNX.s 			page 2


  31:main.c        ****     LCD_Start();
  32:main.c        ****     Counter_Start();
  33:main.c        ****     isr_timer_StartEx(ISR_counter);
  34:main.c        ****     isr_Tarado_StartEx(ISR_Tarado);
  35:main.c        ****     
  36:main.c        ****     CyGlobalIntEnable; /* Enable global interrupts. */
  37:main.c        **** 
  38:main.c        ****     /* Place your initialization/startup code here (e.g. MyInst_Start()) */
  39:main.c        **** 
  40:main.c        ****     for(;;)
  41:main.c        ****     {
  42:main.c        ****         /* Place your application code here. */
  43:main.c        ****         if(ban_cont){
  44:main.c        ****             cont++;//1seg cada 1000 interrupciones
  45:main.c        ****             //Toma de 20 muestras cada 500ms, 1 muestra cada 25ms
  46:main.c        ****             if(cont%25==0){
  47:main.c        ****                 VADC= (uint32)(ReadCount());
  48:main.c        ****                 VADC_prom+=VADC;
  49:main.c        ****                 if (cont==500){
  50:main.c        ****                     VADC_prom/=20; // Promedio de 20 muestras
  51:main.c        ****                     if(ban_boton){
  52:main.c        ****                         b=VADC_prom;
  53:main.c        ****                         ban_boton=0;
  54:main.c        ****                     }        
  55:main.c        ****                     if(VADC_prom>=b){
  56:main.c        ****                         Peso=(uint32)(VADC_prom-b)*700/749;
  57:main.c        ****                         LCD_Position(2,0);
  58:main.c        ****                         LCD_PrintString("Peso = ");
  59:main.c        ****                         LCD_PrintU32Number(Peso);
  60:main.c        ****               
  61:main.c        ****                     }
  62:main.c        ****                     if(VADC_prom<b){
  63:main.c        ****                         Peso=(uint32)(b-VADC_prom)*700/749;
  64:main.c        ****                         LCD_Position(2,0);
  65:main.c        ****                         LCD_PrintString("Peso = -");
  66:main.c        ****                         LCD_PrintU32Number(Peso); 
  67:main.c        ****                     }
  68:main.c        ****                     LCD_Position(0,0);
  69:main.c        ****                     LCD_PrintString("ADC = ");
  70:main.c        ****                     LCD_PrintU32Number(VADC_prom);
  71:main.c        ****                     LCD_ClearDisplay();
  72:main.c        ****                     VADC=0;
  73:main.c        ****                     VADC_prom=0;
  74:main.c        ****                 }
  75:main.c        ****             }
  76:main.c        ****         
  77:main.c        ****         }
  78:main.c        ****     } 
  79:main.c        **** }
  80:main.c        **** CY_ISR(ISR_counter){
  28              		.loc 1 80 0
  29              		.cfi_startproc
  30              		@ args = 0, pretend = 0, frame = 0
  31              		@ frame_needed = 0, uses_anonymous_args = 0
  32              		@ link register save eliminated.
  81:main.c        ****     ban_cont=1;
  33              		.loc 1 81 0
ARM GAS  C:\Users\Usuario\AppData\Local\Temp\ccAb1MNX.s 			page 3


  34 0000 0122     		movs	r2, #1
  35 0002 014B     		ldr	r3, .L2
  36 0004 1A80     		strh	r2, [r3]	@ movhi
  37 0006 7047     		bx	lr
  38              	.L3:
  39              		.align	2
  40              	.L2:
  41 0008 00000000 		.word	.LANCHOR0
  42              		.cfi_endproc
  43              	.LFE64:
  44              		.size	ISR_counter, .-ISR_counter
  45              		.section	.text.ISR_Tarado,"ax",%progbits
  46              		.align	2
  47              		.global	ISR_Tarado
  48              		.thumb
  49              		.thumb_func
  50              		.type	ISR_Tarado, %function
  51              	ISR_Tarado:
  52              	.LFB65:
  82:main.c        **** }
  83:main.c        **** CY_ISR(ISR_Tarado){
  53              		.loc 1 83 0
  54              		.cfi_startproc
  55              		@ args = 0, pretend = 0, frame = 0
  56              		@ frame_needed = 0, uses_anonymous_args = 0
  57              		@ link register save eliminated.
  84:main.c        ****     ban_boton=1;
  58              		.loc 1 84 0
  59 0000 0122     		movs	r2, #1
  60 0002 014B     		ldr	r3, .L5
  61 0004 9A70     		strb	r2, [r3, #2]
  62 0006 7047     		bx	lr
  63              	.L6:
  64              		.align	2
  65              	.L5:
  66 0008 00000000 		.word	.LANCHOR0
  67              		.cfi_endproc
  68              	.LFE65:
  69              		.size	ISR_Tarado, .-ISR_Tarado
  70              		.section	.text.ReadCount,"ax",%progbits
  71              		.align	2
  72              		.global	ReadCount
  73              		.thumb
  74              		.thumb_func
  75              		.type	ReadCount, %function
  76              	ReadCount:
  77              	.LFB66:
  85:main.c        **** }
  86:main.c        **** uint32 ReadCount(void){
  78              		.loc 1 86 0
  79              		.cfi_startproc
  80              		@ args = 0, pretend = 0, frame = 0
  81              		@ frame_needed = 0, uses_anonymous_args = 0
  82 0000 38B5     		push	{r3, r4, r5, lr}
  83              		.cfi_def_cfa_offset 16
  84              		.cfi_offset 3, -16
  85              		.cfi_offset 4, -12
ARM GAS  C:\Users\Usuario\AppData\Local\Temp\ccAb1MNX.s 			page 4


  86              		.cfi_offset 5, -8
  87              		.cfi_offset 14, -4
  87:main.c        ****     uint32 count;
  88:main.c        ****     ADDO_Write(1);
  88              		.loc 1 88 0
  89 0002 0120     		movs	r0, #1
  90 0004 FFF7FEFF 		bl	ADDO_Write
  91              	.LVL0:
  89:main.c        ****     ADSK_Write(0);
  92              		.loc 1 89 0
  93 0008 0020     		movs	r0, #0
  94 000a FFF7FEFF 		bl	ADSK_Write
  95              	.LVL1:
  96              	.L8:
  90:main.c        ****     count=0;
  91:main.c        ****     while (ADDO_Read()){}
  97              		.loc 1 91 0 discriminator 1
  98 000e FFF7FEFF 		bl	ADDO_Read
  99              	.LVL2:
 100 0012 0028     		cmp	r0, #0
 101 0014 FBD1     		bne	.L8
 102 0016 0024     		movs	r4, #0
 103 0018 2546     		mov	r5, r4
 104 001a 0CE0     		b	.L9
 105              	.LVL3:
 106              	.L11:
 107              	.LBB2:
  92:main.c        ****     for(uint8 i=0; i<24; i++){
  93:main.c        ****         ADSK_Write(1);
 108              		.loc 1 93 0
 109 001c 0120     		movs	r0, #1
 110 001e FFF7FEFF 		bl	ADSK_Write
 111              	.LVL4:
  94:main.c        ****         count=count<<1;
 112              		.loc 1 94 0
 113 0022 6D00     		lsls	r5, r5, #1
 114              	.LVL5:
  95:main.c        ****         ADSK_Write(0);
 115              		.loc 1 95 0
 116 0024 0020     		movs	r0, #0
 117 0026 FFF7FEFF 		bl	ADSK_Write
 118              	.LVL6:
  96:main.c        ****         if(ADDO_Read())count++;
 119              		.loc 1 96 0
 120 002a FFF7FEFF 		bl	ADDO_Read
 121              	.LVL7:
 122 002e 00B1     		cbz	r0, .L10
 123              		.loc 1 96 0 is_stmt 0 discriminator 1
 124 0030 0135     		adds	r5, r5, #1
 125              	.LVL8:
 126              	.L10:
  92:main.c        ****         ADSK_Write(1);
 127              		.loc 1 92 0 is_stmt 1 discriminator 2
 128 0032 0134     		adds	r4, r4, #1
 129              	.LVL9:
 130 0034 E4B2     		uxtb	r4, r4
 131              	.LVL10:
ARM GAS  C:\Users\Usuario\AppData\Local\Temp\ccAb1MNX.s 			page 5


 132              	.L9:
  92:main.c        ****         ADSK_Write(1);
 133              		.loc 1 92 0 is_stmt 0 discriminator 1
 134 0036 172C     		cmp	r4, #23
 135 0038 F0D9     		bls	.L11
 136              	.LBE2:
  97:main.c        ****     }
  98:main.c        ****       ADSK_Write(1);
 137              		.loc 1 98 0 is_stmt 1
 138 003a 0120     		movs	r0, #1
 139 003c FFF7FEFF 		bl	ADSK_Write
 140              	.LVL11:
  99:main.c        ****       count=count^0x800000;  
 141              		.loc 1 99 0
 142 0040 85F40005 		eor	r5, r5, #8388608
 143              	.LVL12:
 100:main.c        ****       ADSK_Write(0); 
 144              		.loc 1 100 0
 145 0044 0020     		movs	r0, #0
 146 0046 FFF7FEFF 		bl	ADSK_Write
 147              	.LVL13:
 101:main.c        ****       return(count);
 102:main.c        **** }
 148              		.loc 1 102 0
 149 004a 2846     		mov	r0, r5
 150 004c 38BD     		pop	{r3, r4, r5, pc}
 151              		.cfi_endproc
 152              	.LFE66:
 153              		.size	ReadCount, .-ReadCount
 154 004e 00BF     		.section	.text.main,"ax",%progbits
 155              		.align	2
 156              		.global	main
 157              		.thumb
 158              		.thumb_func
 159              		.type	main, %function
 160              	main:
 161              	.LFB63:
  29:main.c        ****  
 162              		.loc 1 29 0
 163              		.cfi_startproc
 164              		@ Volatile: function does not return.
 165              		@ args = 0, pretend = 0, frame = 0
 166              		@ frame_needed = 0, uses_anonymous_args = 0
 167 0000 08B5     		push	{r3, lr}
 168              		.cfi_def_cfa_offset 8
 169              		.cfi_offset 3, -8
 170              		.cfi_offset 14, -4
  31:main.c        ****     Counter_Start();
 171              		.loc 1 31 0
 172 0002 FFF7FEFF 		bl	LCD_Start
 173              	.LVL14:
  32:main.c        ****     isr_timer_StartEx(ISR_counter);
 174              		.loc 1 32 0
 175 0006 FFF7FEFF 		bl	Counter_Start
 176              	.LVL15:
  33:main.c        ****     isr_Tarado_StartEx(ISR_Tarado);
 177              		.loc 1 33 0
ARM GAS  C:\Users\Usuario\AppData\Local\Temp\ccAb1MNX.s 			page 6


 178 000a 3D48     		ldr	r0, .L22
 179 000c FFF7FEFF 		bl	isr_timer_StartEx
 180              	.LVL16:
  34:main.c        ****     
 181              		.loc 1 34 0
 182 0010 3C48     		ldr	r0, .L22+4
 183 0012 FFF7FEFF 		bl	isr_Tarado_StartEx
 184              	.LVL17:
  36:main.c        **** 
 185              		.loc 1 36 0
 186              		.syntax unified
 187              	@ 36 "main.c" 1
 188 0016 62B6     		CPSIE   i
 189              	@ 0 "" 2
 190              		.thumb
 191              		.syntax unified
 192              	.L14:
  43:main.c        ****             cont++;//1seg cada 1000 interrupciones
 193              		.loc 1 43 0
 194 0018 3B4B     		ldr	r3, .L22+8
 195 001a 1B88     		ldrh	r3, [r3]
 196 001c 002B     		cmp	r3, #0
 197 001e FBD0     		beq	.L14
  44:main.c        ****             //Toma de 20 muestras cada 500ms, 1 muestra cada 25ms
 198              		.loc 1 44 0
 199 0020 394A     		ldr	r2, .L22+8
 200 0022 9388     		ldrh	r3, [r2, #4]
 201 0024 0133     		adds	r3, r3, #1
 202 0026 9BB2     		uxth	r3, r3
 203 0028 9380     		strh	r3, [r2, #4]	@ movhi
  46:main.c        ****                 VADC= (uint32)(ReadCount());
 204              		.loc 1 46 0
 205 002a 384A     		ldr	r2, .L22+12
 206 002c A2FB0312 		umull	r1, r2, r2, r3
 207 0030 D208     		lsrs	r2, r2, #3
 208 0032 02EB8202 		add	r2, r2, r2, lsl #2
 209 0036 02EB8202 		add	r2, r2, r2, lsl #2
 210 003a 9B1A     		subs	r3, r3, r2
 211 003c 9BB2     		uxth	r3, r3
 212 003e 002B     		cmp	r3, #0
 213 0040 EAD1     		bne	.L14
  47:main.c        ****                 VADC_prom+=VADC;
 214              		.loc 1 47 0
 215 0042 FFF7FEFF 		bl	ReadCount
 216              	.LVL18:
 217 0046 304A     		ldr	r2, .L22+8
 218 0048 9060     		str	r0, [r2, #8]
  48:main.c        ****                 if (cont==500){
 219              		.loc 1 48 0
 220 004a D368     		ldr	r3, [r2, #12]
 221 004c 0344     		add	r3, r3, r0
 222 004e D360     		str	r3, [r2, #12]
  49:main.c        ****                     VADC_prom/=20; // Promedio de 20 muestras
 223              		.loc 1 49 0
 224 0050 9288     		ldrh	r2, [r2, #4]
 225 0052 B2F5FA7F 		cmp	r2, #500
 226 0056 DFD1     		bne	.L14
ARM GAS  C:\Users\Usuario\AppData\Local\Temp\ccAb1MNX.s 			page 7


  50:main.c        ****                     if(ban_boton){
 227              		.loc 1 50 0
 228 0058 2D4A     		ldr	r2, .L22+16
 229 005a A2FB0323 		umull	r2, r3, r2, r3
 230 005e 1B09     		lsrs	r3, r3, #4
 231 0060 294A     		ldr	r2, .L22+8
 232 0062 D360     		str	r3, [r2, #12]
  51:main.c        ****                         b=VADC_prom;
 233              		.loc 1 51 0
 234 0064 9278     		ldrb	r2, [r2, #2]	@ zero_extendqisi2
 235 0066 22B1     		cbz	r2, .L17
  52:main.c        ****                         ban_boton=0;
 236              		.loc 1 52 0
 237 0068 2A4A     		ldr	r2, .L22+20
 238 006a 1380     		strh	r3, [r2]	@ movhi
  53:main.c        ****                     }        
 239              		.loc 1 53 0
 240 006c 0021     		movs	r1, #0
 241 006e 264A     		ldr	r2, .L22+8
 242 0070 9170     		strb	r1, [r2, #2]
 243              	.L17:
  55:main.c        ****                         Peso=(uint32)(VADC_prom-b)*700/749;
 244              		.loc 1 55 0
 245 0072 284A     		ldr	r2, .L22+20
 246 0074 1288     		ldrh	r2, [r2]
 247 0076 9342     		cmp	r3, r2
 248 0078 14D3     		bcc	.L18
  56:main.c        ****                         LCD_Position(2,0);
 249              		.loc 1 56 0
 250 007a 9B1A     		subs	r3, r3, r2
 251 007c 4FF42F72 		mov	r2, #700
 252 0080 02FB03F3 		mul	r3, r2, r3
 253 0084 244A     		ldr	r2, .L22+24
 254 0086 A2FB0323 		umull	r2, r3, r2, r3
 255 008a 1B0A     		lsrs	r3, r3, #8
 256 008c 1E4C     		ldr	r4, .L22+8
 257 008e 2361     		str	r3, [r4, #16]
  57:main.c        ****                         LCD_PrintString("Peso = ");
 258              		.loc 1 57 0
 259 0090 0021     		movs	r1, #0
 260 0092 0220     		movs	r0, #2
 261 0094 FFF7FEFF 		bl	LCD_Position
 262              	.LVL19:
  58:main.c        ****                         LCD_PrintU32Number(Peso);
 263              		.loc 1 58 0
 264 0098 2048     		ldr	r0, .L22+28
 265 009a FFF7FEFF 		bl	LCD_PrintString
 266              	.LVL20:
  59:main.c        ****               
 267              		.loc 1 59 0
 268 009e 2069     		ldr	r0, [r4, #16]
 269 00a0 FFF7FEFF 		bl	LCD_PrintU32Number
 270              	.LVL21:
 271              	.L18:
  62:main.c        ****                         Peso=(uint32)(b-VADC_prom)*700/749;
 272              		.loc 1 62 0
 273 00a4 1B4B     		ldr	r3, .L22+20
ARM GAS  C:\Users\Usuario\AppData\Local\Temp\ccAb1MNX.s 			page 8


 274 00a6 1B88     		ldrh	r3, [r3]
 275 00a8 174A     		ldr	r2, .L22+8
 276 00aa D268     		ldr	r2, [r2, #12]
 277 00ac 9342     		cmp	r3, r2
 278 00ae 14D9     		bls	.L19
  63:main.c        ****                         LCD_Position(2,0);
 279              		.loc 1 63 0
 280 00b0 9A1A     		subs	r2, r3, r2
 281 00b2 4FF42F73 		mov	r3, #700
 282 00b6 03FB02F3 		mul	r3, r3, r2
 283 00ba 174A     		ldr	r2, .L22+24
 284 00bc A2FB0323 		umull	r2, r3, r2, r3
 285 00c0 1B0A     		lsrs	r3, r3, #8
 286 00c2 114C     		ldr	r4, .L22+8
 287 00c4 2361     		str	r3, [r4, #16]
  64:main.c        ****                         LCD_PrintString("Peso = -");
 288              		.loc 1 64 0
 289 00c6 0021     		movs	r1, #0
 290 00c8 0220     		movs	r0, #2
 291 00ca FFF7FEFF 		bl	LCD_Position
 292              	.LVL22:
  65:main.c        ****                         LCD_PrintU32Number(Peso); 
 293              		.loc 1 65 0
 294 00ce 1448     		ldr	r0, .L22+32
 295 00d0 FFF7FEFF 		bl	LCD_PrintString
 296              	.LVL23:
  66:main.c        ****                     }
 297              		.loc 1 66 0
 298 00d4 2069     		ldr	r0, [r4, #16]
 299 00d6 FFF7FEFF 		bl	LCD_PrintU32Number
 300              	.LVL24:
 301              	.L19:
  68:main.c        ****                     LCD_PrintString("ADC = ");
 302              		.loc 1 68 0
 303 00da 0021     		movs	r1, #0
 304 00dc 0846     		mov	r0, r1
 305 00de FFF7FEFF 		bl	LCD_Position
 306              	.LVL25:
  69:main.c        ****                     LCD_PrintU32Number(VADC_prom);
 307              		.loc 1 69 0
 308 00e2 1048     		ldr	r0, .L22+36
 309 00e4 FFF7FEFF 		bl	LCD_PrintString
 310              	.LVL26:
  70:main.c        ****                     LCD_ClearDisplay();
 311              		.loc 1 70 0
 312 00e8 074C     		ldr	r4, .L22+8
 313 00ea E068     		ldr	r0, [r4, #12]
 314 00ec FFF7FEFF 		bl	LCD_PrintU32Number
 315              	.LVL27:
  71:main.c        ****                     VADC=0;
 316              		.loc 1 71 0
 317 00f0 0120     		movs	r0, #1
 318 00f2 FFF7FEFF 		bl	LCD_WriteControl
 319              	.LVL28:
  72:main.c        ****                     VADC_prom=0;
 320              		.loc 1 72 0
 321 00f6 0023     		movs	r3, #0
ARM GAS  C:\Users\Usuario\AppData\Local\Temp\ccAb1MNX.s 			page 9


 322 00f8 A360     		str	r3, [r4, #8]
  73:main.c        ****                 }
 323              		.loc 1 73 0
 324 00fa E360     		str	r3, [r4, #12]
 325 00fc 8CE7     		b	.L14
 326              	.L23:
 327 00fe 00BF     		.align	2
 328              	.L22:
 329 0100 00000000 		.word	ISR_counter
 330 0104 00000000 		.word	ISR_Tarado
 331 0108 00000000 		.word	.LANCHOR0
 332 010c 1F85EB51 		.word	1374389535
 333 0110 CDCCCCCC 		.word	-858993459
 334 0114 00000000 		.word	.LANCHOR1
 335 0118 C17C7F57 		.word	1467972801
 336 011c 00000000 		.word	.LC0
 337 0120 08000000 		.word	.LC1
 338 0124 14000000 		.word	.LC2
 339              		.cfi_endproc
 340              	.LFE63:
 341              		.size	main, .-main
 342              		.global	Peso
 343              		.global	VADC_prom
 344              		.global	VADC
 345              		.global	cont
 346              		.global	m
 347              		.global	z
 348              		.global	b
 349              		.global	ban_neg
 350              		.global	ban_boton
 351              		.global	ban_cont1
 352              		.global	ban_cont
 353              		.data
 354              		.align	1
 355              		.set	.LANCHOR1,. + 0
 356              		.type	b, %object
 357              		.size	b, 2
 358              	b:
 359 0000 0E01     		.short	270
 360              		.type	m, %object
 361              		.size	m, 2
 362              	m:
 363 0002 ED02     		.short	749
 364              		.type	z, %object
 365              		.size	z, 2
 366              	z:
 367 0004 BC02     		.short	700
 368              		.section	.rodata.str1.4,"aMS",%progbits,1
 369              		.align	2
 370              	.LC0:
 371 0000 5065736F 		.ascii	"Peso = \000"
 371      203D2000 
 372              	.LC1:
 373 0008 5065736F 		.ascii	"Peso = -\000"
 373      203D202D 
 373      00
 374 0011 000000   		.space	3
ARM GAS  C:\Users\Usuario\AppData\Local\Temp\ccAb1MNX.s 			page 10


 375              	.LC2:
 376 0014 41444320 		.ascii	"ADC = \000"
 376      3D2000
 377              		.bss
 378              		.align	2
 379              		.set	.LANCHOR0,. + 0
 380              		.type	ban_cont, %object
 381              		.size	ban_cont, 2
 382              	ban_cont:
 383 0000 0000     		.space	2
 384              		.type	ban_boton, %object
 385              		.size	ban_boton, 1
 386              	ban_boton:
 387 0002 00       		.space	1
 388 0003 00       		.space	1
 389              		.type	cont, %object
 390              		.size	cont, 2
 391              	cont:
 392 0004 0000     		.space	2
 393 0006 0000     		.space	2
 394              		.type	VADC, %object
 395              		.size	VADC, 4
 396              	VADC:
 397 0008 00000000 		.space	4
 398              		.type	VADC_prom, %object
 399              		.size	VADC_prom, 4
 400              	VADC_prom:
 401 000c 00000000 		.space	4
 402              		.type	Peso, %object
 403              		.size	Peso, 4
 404              	Peso:
 405 0010 00000000 		.space	4
 406              		.type	ban_neg, %object
 407              		.size	ban_neg, 1
 408              	ban_neg:
 409 0014 00       		.space	1
 410 0015 00       		.space	1
 411              		.type	ban_cont1, %object
 412              		.size	ban_cont1, 2
 413              	ban_cont1:
 414 0016 0000     		.space	2
 415              		.text
 416              	.Letext0:
 417              		.file 2 "c:\\program files (x86)\\cypress\\psoc creator\\4.4\\psoc creator\\import\\gnu\\arm\\5.4.
 418              		.file 3 "c:\\program files (x86)\\cypress\\psoc creator\\4.4\\psoc creator\\import\\gnu\\arm\\5.4.
 419              		.file 4 "Generated_Source\\PSoC5/cytypes.h"
 420              		.file 5 "Generated_Source\\PSoC5/core_cm3.h"
 421              		.file 6 "Generated_Source\\PSoC5/ADSK.h"
 422              		.file 7 "Generated_Source\\PSoC5/ADDO.h"
 423              		.file 8 "Generated_Source\\PSoC5/LCD.h"
 424              		.file 9 "Generated_Source\\PSoC5/Counter.h"
 425              		.file 10 "Generated_Source\\PSoC5/isr_timer.h"
 426              		.file 11 "Generated_Source\\PSoC5/isr_Tarado.h"