ARM GAS  C:\Users\bioin\AppData\Local\Temp\cc4JYU72.s 			page 1


   1              		.syntax unified
   2              		.cpu cortex-m3
   3              		.fpu softvfp
   4              		.eabi_attribute 20, 1
   5              		.eabi_attribute 21, 1
   6              		.eabi_attribute 23, 3
   7              		.eabi_attribute 24, 1
   8              		.eabi_attribute 25, 1
   9              		.eabi_attribute 26, 1
  10              		.eabi_attribute 30, 1
  11              		.eabi_attribute 34, 1
  12              		.eabi_attribute 18, 4
  13              		.thumb
  14              		.syntax unified
  15              		.file	"main.c"
  16              		.text
  17              	.Ltext0:
  18              		.cfi_sections	.debug_frame
  19              		.section	.text.Ms,"ax",%progbits
  20              		.align	2
  21              		.global	Ms
  22              		.thumb
  23              		.thumb_func
  24              		.type	Ms, %function
  25              	Ms:
  26              	.LFB64:
  27              		.file 1 "main.c"
   1:main.c        **** /* ========================================
   2:main.c        ****  *
   3:main.c        ****  * Copyright YOUR COMPANY, THE YEAR
   4:main.c        ****  * All Rights Reserved
   5:main.c        ****  * UNPUBLISHED, LICENSED SOFTWARE.
   6:main.c        ****  *
   7:main.c        ****  * CONFIDENTIAL AND PROPRIETARY INFORMATION
   8:main.c        ****  * WHICH IS THE PROPERTY OF your company.
   9:main.c        ****  *
  10:main.c        ****  * ========================================
  11:main.c        **** */
  12:main.c        **** #include "project.h"
  13:main.c        **** 
  14:main.c        **** struct Pulso{
  15:main.c        ****     uint8 dato1;
  16:main.c        ****     uint8 dato2;
  17:main.c        ****     uint8 dato3;
  18:main.c        ****     uint8 dato4;
  19:main.c        ****     uint8 dato5;
  20:main.c        ****     uint8 datoActual;
  21:main.c        ****     uint8 promedioMovil;
  22:main.c        ****     uint8 bandera;
  23:main.c        ****     uint8 dedo;
  24:main.c        **** };
  25:main.c        **** 
  26:main.c        **** struct Pulso pulso;
  27:main.c        **** 
  28:main.c        **** struct Tiempo{
  29:main.c        ****     uint8 bandera;
  30:main.c        ****     uint16 ms;
ARM GAS  C:\Users\bioin\AppData\Local\Temp\cc4JYU72.s 			page 2


  31:main.c        ****     uint8 ms10;
  32:main.c        ****     uint8 ms100;
  33:main.c        **** };
  34:main.c        **** 
  35:main.c        **** struct Tiempo tiempo;
  36:main.c        **** 
  37:main.c        **** struct Voltaje{
  38:main.c        ****     uint16 ADC;
  39:main.c        ****     uint16 mv;
  40:main.c        ****     uint16 dato1;
  41:main.c        ****     uint16 dato2;
  42:main.c        ****     uint16 dato3;
  43:main.c        ****     uint16 dato4;
  44:main.c        ****     uint16 dato5;
  45:main.c        ****     uint16 promedioMovil;
  46:main.c        **** };
  47:main.c        **** 
  48:main.c        **** struct Voltaje voltaje;
  49:main.c        **** 
  50:main.c        **** CY_ISR_PROTO(Serial);
  51:main.c        **** CY_ISR_PROTO(Ms);
  52:main.c        **** CY_ISR_PROTO(Medicion);
  53:main.c        ****     
  54:main.c        **** int main(void)
  55:main.c        **** {
  56:main.c        ****     CyGlobalIntEnable; /* Enable global interrupts. */
  57:main.c        **** 
  58:main.c        ****     Opamp_1_Start();
  59:main.c        ****     Opamp_2_Start();
  60:main.c        ****     PGA_Start();
  61:main.c        ****     Comp_Start();
  62:main.c        ****     ADC_Start();
  63:main.c        ****     UART_Start();
  64:main.c        ****     Contador_Start();
  65:main.c        ****     LCD_Start();
  66:main.c        ****     
  67:main.c        ****     RXInterrupt_StartEx(Serial);
  68:main.c        ****     Temporizador_StartEx(Ms);
  69:main.c        ****     PulsoSensor_StartEx(Medicion);
  70:main.c        **** 
  71:main.c        ****     for(;;)
  72:main.c        ****     {
  73:main.c        ****         
  74:main.c        ****         if (tiempo.bandera){
  75:main.c        ****             tiempo.bandera = 0;
  76:main.c        ****             tiempo.ms++;
  77:main.c        ****             if (tiempo.ms%10==0){
  78:main.c        ****                 tiempo.ms10 = 1;
  79:main.c        ****             }
  80:main.c        ****         }
  81:main.c        ****         
  82:main.c        ****         if(tiempo.ms10){
  83:main.c        ****             tiempo.ms10 = 0;
  84:main.c        ****             tiempo.ms100++;
  85:main.c        ****             if (tiempo.ms100==11){
  86:main.c        ****                 tiempo.ms100 = 1;
  87:main.c        ****             }
ARM GAS  C:\Users\bioin\AppData\Local\Temp\cc4JYU72.s 			page 3


  88:main.c        ****             ADC_StartConvert();
  89:main.c        ****             ADC_IsEndConversion(ADC_WAIT_FOR_RESULT);
  90:main.c        ****             voltaje.ADC = ADC_GetResult16();
  91:main.c        ****             voltaje.mv = (uint32)(5000*voltaje.ADC)/4095;
  92:main.c        ****             UART_PutChar(((voltaje.mv/1000)%10)+48); 
  93:main.c        ****             UART_PutChar(((voltaje.mv/100)%10)+48); 
  94:main.c        ****             UART_PutChar(((voltaje.mv/10)%10)+48); 
  95:main.c        ****             UART_PutChar((voltaje.mv%10)+48); 
  96:main.c        ****             UART_PutCRLF(' ');
  97:main.c        ****                    
  98:main.c        ****             if (pulso.bandera){
  99:main.c        ****                 pulso.bandera = 0;
 100:main.c        ****                 pulso.datoActual = (uint16) 60000/tiempo.ms;
 101:main.c        ****                 tiempo.ms = 0;
 102:main.c        ****                 
 103:main.c        ****                 pulso.dato5 = pulso.dato4;
 104:main.c        ****                 pulso.dato4 = pulso.dato3;
 105:main.c        ****                 pulso.dato3 = pulso.dato2;
 106:main.c        ****                 pulso.dato2 = pulso.dato1;
 107:main.c        ****                 pulso.dato1 = pulso.datoActual;
 108:main.c        ****                                 
 109:main.c        ****                 if((pulso.dato1!=0)&&(pulso.dato2!=0)&&(pulso.dato3!=0)&&(pulso.dato4!=0)&&(pulso.d
 110:main.c        ****                     pulso.promedioMovil=(pulso.dato1+pulso.dato2+pulso.dato3+pulso.dato4+pulso.dato
 111:main.c        ****                     pulso.dedo = 1;
 112:main.c        ****                 }
 113:main.c        ****             }
 114:main.c        ****             if (tiempo.ms100 == 10){
 115:main.c        ****                 voltaje.dato5 = voltaje.dato4;
 116:main.c        ****                 voltaje.dato4 = voltaje.dato3;
 117:main.c        ****                 voltaje.dato3 = voltaje.dato2;
 118:main.c        ****                 voltaje.dato2 = voltaje.dato1;
 119:main.c        ****                 voltaje.dato1 = voltaje.mv;
 120:main.c        ****                 voltaje.promedioMovil=(voltaje.dato1+voltaje.dato2+voltaje.dato3+voltaje.dato4+volt
 121:main.c        ****                 if (voltaje.promedioMovil<=1800){
 122:main.c        ****                     pulso.dedo = 0;
 123:main.c        ****                 }
 124:main.c        ****                 if (pulso.dedo){
 125:main.c        ****                     LCD_ClearDisplay();
 126:main.c        ****                     LCD_Position(0,0);
 127:main.c        ****                     LCD_PrintString("F.cardiaca: ");
 128:main.c        ****                     LCD_PrintNumber(pulso.promedioMovil);
 129:main.c        ****                     LCD_PrintString(" LPM");
 130:main.c        ****                     LCD_Position(1,0);
 131:main.c        ****                     LCD_PrintString("F.senal: ");
 132:main.c        ****                     LCD_PrintNumber(pulso.promedioMovil/60);
 133:main.c        ****                     LCD_PutChar('.');
 134:main.c        ****                     LCD_PrintNumber((10*pulso.promedioMovil/60)%10);
 135:main.c        ****                     LCD_PrintString(" HZ");
 136:main.c        ****                 }
 137:main.c        ****                 else{
 138:main.c        ****                     LCD_ClearDisplay();
 139:main.c        ****                     LCD_Position(0,0);
 140:main.c        ****                     LCD_PrintString("F.cardiaca: 0 LPM");
 141:main.c        ****                     LCD_Position(1,0);
 142:main.c        ****                     LCD_PrintString("F.senal: 0 HZ");
 143:main.c        ****                     LCD_Position(2,0);
 144:main.c        ****                     LCD_PrintString("No hay dedo");
ARM GAS  C:\Users\bioin\AppData\Local\Temp\cc4JYU72.s 			page 4


 145:main.c        ****                     pulso.dato1 = 0;
 146:main.c        ****                     pulso.dato2 = 0;
 147:main.c        ****                     pulso.dato3 = 0;
 148:main.c        ****                     pulso.dato4 = 0;
 149:main.c        ****                     pulso.dato5 = 0;
 150:main.c        ****                 }
 151:main.c        ****             }
 152:main.c        ****         }  
 153:main.c        ****     }
 154:main.c        ****     
 155:main.c        **** }
 156:main.c        **** 
 157:main.c        **** CY_ISR(Ms){
  28              		.loc 1 157 0
  29              		.cfi_startproc
  30              		@ args = 0, pretend = 0, frame = 0
  31              		@ frame_needed = 0, uses_anonymous_args = 0
  32              		@ link register save eliminated.
 158:main.c        ****     
 159:main.c        ****     tiempo.bandera = 1;
  33              		.loc 1 159 0
  34 0000 0122     		movs	r2, #1
  35 0002 014B     		ldr	r3, .L2
  36 0004 1A70     		strb	r2, [r3]
  37 0006 7047     		bx	lr
  38              	.L3:
  39              		.align	2
  40              	.L2:
  41 0008 00000000 		.word	tiempo
  42              		.cfi_endproc
  43              	.LFE64:
  44              		.size	Ms, .-Ms
  45              		.section	.text.Medicion,"ax",%progbits
  46              		.align	2
  47              		.global	Medicion
  48              		.thumb
  49              		.thumb_func
  50              		.type	Medicion, %function
  51              	Medicion:
  52              	.LFB65:
 160:main.c        ****     
 161:main.c        **** }
 162:main.c        **** 
 163:main.c        **** CY_ISR(Medicion){
  53              		.loc 1 163 0
  54              		.cfi_startproc
  55              		@ args = 0, pretend = 0, frame = 0
  56              		@ frame_needed = 0, uses_anonymous_args = 0
  57              		@ link register save eliminated.
 164:main.c        ****     
 165:main.c        ****     pulso.bandera = 1;
  58              		.loc 1 165 0
  59 0000 0122     		movs	r2, #1
  60 0002 014B     		ldr	r3, .L5
  61 0004 DA71     		strb	r2, [r3, #7]
  62 0006 7047     		bx	lr
  63              	.L6:
ARM GAS  C:\Users\bioin\AppData\Local\Temp\cc4JYU72.s 			page 5


  64              		.align	2
  65              	.L5:
  66 0008 00000000 		.word	pulso
  67              		.cfi_endproc
  68              	.LFE65:
  69              		.size	Medicion, .-Medicion
  70              		.section	.text.Serial,"ax",%progbits
  71              		.align	2
  72              		.global	Serial
  73              		.thumb
  74              		.thumb_func
  75              		.type	Serial, %function
  76              	Serial:
  77              	.LFB66:
 166:main.c        ****     
 167:main.c        **** }
 168:main.c        **** 
 169:main.c        **** CY_ISR(Serial){
  78              		.loc 1 169 0
  79              		.cfi_startproc
  80              		@ args = 0, pretend = 0, frame = 0
  81              		@ frame_needed = 0, uses_anonymous_args = 0
  82              		@ link register save eliminated.
  83 0000 7047     		bx	lr
  84              		.cfi_endproc
  85              	.LFE66:
  86              		.size	Serial, .-Serial
  87 0002 00BF     		.section	.text.main,"ax",%progbits
  88              		.align	2
  89              		.global	main
  90              		.thumb
  91              		.thumb_func
  92              		.type	main, %function
  93              	main:
  94              	.LFB63:
  55:main.c        ****     CyGlobalIntEnable; /* Enable global interrupts. */
  95              		.loc 1 55 0
  96              		.cfi_startproc
  97              		@ Volatile: function does not return.
  98              		@ args = 0, pretend = 0, frame = 0
  99              		@ frame_needed = 0, uses_anonymous_args = 0
  55:main.c        ****     CyGlobalIntEnable; /* Enable global interrupts. */
 100              		.loc 1 55 0
 101 0000 08B5     		push	{r3, lr}
 102              		.cfi_def_cfa_offset 8
 103              		.cfi_offset 3, -8
 104              		.cfi_offset 14, -4
  56:main.c        **** 
 105              		.loc 1 56 0
 106              		.syntax unified
 107              	@ 56 "main.c" 1
 108 0002 62B6     		CPSIE   i
 109              	@ 0 "" 2
  58:main.c        ****     Opamp_2_Start();
 110              		.loc 1 58 0
 111              		.thumb
 112              		.syntax unified
ARM GAS  C:\Users\bioin\AppData\Local\Temp\cc4JYU72.s 			page 6


 113 0004 FFF7FEFF 		bl	Opamp_1_Start
 114              	.LVL0:
  59:main.c        ****     PGA_Start();
 115              		.loc 1 59 0
 116 0008 FFF7FEFF 		bl	Opamp_2_Start
 117              	.LVL1:
  60:main.c        ****     Comp_Start();
 118              		.loc 1 60 0
 119 000c FFF7FEFF 		bl	PGA_Start
 120              	.LVL2:
  61:main.c        ****     ADC_Start();
 121              		.loc 1 61 0
 122 0010 FFF7FEFF 		bl	Comp_Start
 123              	.LVL3:
  62:main.c        ****     UART_Start();
 124              		.loc 1 62 0
 125 0014 FFF7FEFF 		bl	ADC_Start
 126              	.LVL4:
  63:main.c        ****     Contador_Start();
 127              		.loc 1 63 0
 128 0018 FFF7FEFF 		bl	UART_Start
 129              	.LVL5:
  64:main.c        ****     LCD_Start();
 130              		.loc 1 64 0
 131 001c FFF7FEFF 		bl	Contador_Start
 132              	.LVL6:
  65:main.c        ****     
 133              		.loc 1 65 0
 134 0020 FFF7FEFF 		bl	LCD_Start
 135              	.LVL7:
  67:main.c        ****     Temporizador_StartEx(Ms);
 136              		.loc 1 67 0
 137 0024 9948     		ldr	r0, .L19
 138 0026 FFF7FEFF 		bl	RXInterrupt_StartEx
 139              	.LVL8:
  68:main.c        ****     PulsoSensor_StartEx(Medicion);
 140              		.loc 1 68 0
 141 002a 9948     		ldr	r0, .L19+4
 142 002c FFF7FEFF 		bl	Temporizador_StartEx
 143              	.LVL9:
  69:main.c        **** 
 144              		.loc 1 69 0
 145 0030 9848     		ldr	r0, .L19+8
 146 0032 FFF7FEFF 		bl	PulsoSensor_StartEx
 147              	.LVL10:
 148              	.L11:
  74:main.c        ****             tiempo.bandera = 0;
 149              		.loc 1 74 0
 150 0036 984B     		ldr	r3, .L19+12
 151 0038 1B78     		ldrb	r3, [r3]	@ zero_extendqisi2
 152 003a 9BB1     		cbz	r3, .L10
  75:main.c        ****             tiempo.ms++;
 153              		.loc 1 75 0
 154 003c 964A     		ldr	r2, .L19+12
 155 003e 0023     		movs	r3, #0
 156 0040 1370     		strb	r3, [r2]
  76:main.c        ****             if (tiempo.ms%10==0){
ARM GAS  C:\Users\bioin\AppData\Local\Temp\cc4JYU72.s 			page 7


 157              		.loc 1 76 0
 158 0042 5388     		ldrh	r3, [r2, #2]
 159 0044 0133     		adds	r3, r3, #1
 160 0046 9BB2     		uxth	r3, r3
 161 0048 5380     		strh	r3, [r2, #2]	@ movhi
  77:main.c        ****                 tiempo.ms10 = 1;
 162              		.loc 1 77 0
 163 004a 944A     		ldr	r2, .L19+16
 164 004c A2FB0312 		umull	r1, r2, r2, r3
 165 0050 D208     		lsrs	r2, r2, #3
 166 0052 02EB8202 		add	r2, r2, r2, lsl #2
 167 0056 5100     		lsls	r1, r2, #1
 168 0058 5B1A     		subs	r3, r3, r1
 169 005a 9BB2     		uxth	r3, r3
 170 005c 13B9     		cbnz	r3, .L10
  78:main.c        ****             }
 171              		.loc 1 78 0
 172 005e 0122     		movs	r2, #1
 173 0060 8D4B     		ldr	r3, .L19+12
 174 0062 1A71     		strb	r2, [r3, #4]
 175              	.L10:
  82:main.c        ****             tiempo.ms10 = 0;
 176              		.loc 1 82 0
 177 0064 8C4B     		ldr	r3, .L19+12
 178 0066 1B79     		ldrb	r3, [r3, #4]	@ zero_extendqisi2
 179 0068 002B     		cmp	r3, #0
 180 006a E4D0     		beq	.L11
  83:main.c        ****             tiempo.ms100++;
 181              		.loc 1 83 0
 182 006c 8A4A     		ldr	r2, .L19+12
 183 006e 0023     		movs	r3, #0
 184 0070 1371     		strb	r3, [r2, #4]
  84:main.c        ****             if (tiempo.ms100==11){
 185              		.loc 1 84 0
 186 0072 5379     		ldrb	r3, [r2, #5]	@ zero_extendqisi2
 187 0074 0133     		adds	r3, r3, #1
 188 0076 DBB2     		uxtb	r3, r3
 189 0078 5371     		strb	r3, [r2, #5]
  85:main.c        ****                 tiempo.ms100 = 1;
 190              		.loc 1 85 0
 191 007a 0B2B     		cmp	r3, #11
 192 007c 02D1     		bne	.L12
  86:main.c        ****             }
 193              		.loc 1 86 0
 194 007e 0122     		movs	r2, #1
 195 0080 854B     		ldr	r3, .L19+12
 196 0082 5A71     		strb	r2, [r3, #5]
 197              	.L12:
  88:main.c        ****             ADC_IsEndConversion(ADC_WAIT_FOR_RESULT);
 198              		.loc 1 88 0
 199 0084 FFF7FEFF 		bl	ADC_StartConvert
 200              	.LVL11:
  89:main.c        ****             voltaje.ADC = ADC_GetResult16();
 201              		.loc 1 89 0
 202 0088 0020     		movs	r0, #0
 203 008a FFF7FEFF 		bl	ADC_IsEndConversion
 204              	.LVL12:
ARM GAS  C:\Users\bioin\AppData\Local\Temp\cc4JYU72.s 			page 8


  90:main.c        ****             voltaje.mv = (uint32)(5000*voltaje.ADC)/4095;
 205              		.loc 1 90 0
 206 008e FFF7FEFF 		bl	ADC_GetResult16
 207              	.LVL13:
 208 0092 80B2     		uxth	r0, r0
 209 0094 824C     		ldr	r4, .L19+20
 210 0096 2080     		strh	r0, [r4]	@ movhi
  91:main.c        ****             UART_PutChar(((voltaje.mv/1000)%10)+48); 
 211              		.loc 1 91 0
 212 0098 41F28833 		movw	r3, #5000
 213 009c 03FB00F3 		mul	r3, r3, r0
 214 00a0 804A     		ldr	r2, .L19+24
 215 00a2 A2FB0312 		umull	r1, r2, r2, r3
 216 00a6 9B1A     		subs	r3, r3, r2
 217 00a8 02EB5303 		add	r3, r2, r3, lsr #1
 218 00ac C3F3CF23 		ubfx	r3, r3, #11, #16
 219 00b0 6380     		strh	r3, [r4, #2]	@ movhi
  92:main.c        ****             UART_PutChar(((voltaje.mv/100)%10)+48); 
 220              		.loc 1 92 0
 221 00b2 7D4A     		ldr	r2, .L19+28
 222 00b4 A2FB0323 		umull	r2, r3, r2, r3
 223 00b8 9B09     		lsrs	r3, r3, #6
 224 00ba 784D     		ldr	r5, .L19+16
 225 00bc A5FB0312 		umull	r1, r2, r5, r3
 226 00c0 D208     		lsrs	r2, r2, #3
 227 00c2 02EB8202 		add	r2, r2, r2, lsl #2
 228 00c6 5000     		lsls	r0, r2, #1
 229 00c8 181A     		subs	r0, r3, r0
 230 00ca 3030     		adds	r0, r0, #48
 231 00cc C0B2     		uxtb	r0, r0
 232 00ce FFF7FEFF 		bl	UART_PutChar
 233              	.LVL14:
  93:main.c        ****             UART_PutChar(((voltaje.mv/10)%10)+48); 
 234              		.loc 1 93 0
 235 00d2 6388     		ldrh	r3, [r4, #2]
 236 00d4 754A     		ldr	r2, .L19+32
 237 00d6 A2FB0323 		umull	r2, r3, r2, r3
 238 00da 5B09     		lsrs	r3, r3, #5
 239 00dc A5FB0312 		umull	r1, r2, r5, r3
 240 00e0 D208     		lsrs	r2, r2, #3
 241 00e2 02EB8202 		add	r2, r2, r2, lsl #2
 242 00e6 5000     		lsls	r0, r2, #1
 243 00e8 181A     		subs	r0, r3, r0
 244 00ea 3030     		adds	r0, r0, #48
 245 00ec C0B2     		uxtb	r0, r0
 246 00ee FFF7FEFF 		bl	UART_PutChar
 247              	.LVL15:
  94:main.c        ****             UART_PutChar((voltaje.mv%10)+48); 
 248              		.loc 1 94 0
 249 00f2 6388     		ldrh	r3, [r4, #2]
 250 00f4 A5FB0323 		umull	r2, r3, r5, r3
 251 00f8 DB08     		lsrs	r3, r3, #3
 252 00fa A5FB0312 		umull	r1, r2, r5, r3
 253 00fe D208     		lsrs	r2, r2, #3
 254 0100 02EB8202 		add	r2, r2, r2, lsl #2
 255 0104 5000     		lsls	r0, r2, #1
 256 0106 181A     		subs	r0, r3, r0
ARM GAS  C:\Users\bioin\AppData\Local\Temp\cc4JYU72.s 			page 9


 257 0108 3030     		adds	r0, r0, #48
 258 010a C0B2     		uxtb	r0, r0
 259 010c FFF7FEFF 		bl	UART_PutChar
 260              	.LVL16:
  95:main.c        ****             UART_PutCRLF(' ');
 261              		.loc 1 95 0
 262 0110 6388     		ldrh	r3, [r4, #2]
 263 0112 A5FB0325 		umull	r2, r5, r5, r3
 264 0116 ED08     		lsrs	r5, r5, #3
 265 0118 05EB8505 		add	r5, r5, r5, lsl #2
 266 011c 6800     		lsls	r0, r5, #1
 267 011e 181A     		subs	r0, r3, r0
 268 0120 3030     		adds	r0, r0, #48
 269 0122 C0B2     		uxtb	r0, r0
 270 0124 FFF7FEFF 		bl	UART_PutChar
 271              	.LVL17:
  96:main.c        ****                    
 272              		.loc 1 96 0
 273 0128 2020     		movs	r0, #32
 274 012a FFF7FEFF 		bl	UART_PutCRLF
 275              	.LVL18:
  98:main.c        ****                 pulso.bandera = 0;
 276              		.loc 1 98 0
 277 012e 604B     		ldr	r3, .L19+36
 278 0130 DB79     		ldrb	r3, [r3, #7]	@ zero_extendqisi2
 279 0132 3BB3     		cbz	r3, .L13
  99:main.c        ****                 pulso.datoActual = (uint16) 60000/tiempo.ms;
 280              		.loc 1 99 0
 281 0134 5E4B     		ldr	r3, .L19+36
 282 0136 0020     		movs	r0, #0
 283 0138 D871     		strb	r0, [r3, #7]
 100:main.c        ****                 tiempo.ms = 0;
 284              		.loc 1 100 0
 285 013a 5749     		ldr	r1, .L19+12
 286 013c 4C88     		ldrh	r4, [r1, #2]
 287 013e 4EF66022 		movw	r2, #60000
 288 0142 B2FBF4F2 		udiv	r2, r2, r4
 289 0146 D2B2     		uxtb	r2, r2
 290 0148 5A71     		strb	r2, [r3, #5]
 101:main.c        ****                 
 291              		.loc 1 101 0
 292 014a 4880     		strh	r0, [r1, #2]	@ movhi
 103:main.c        ****                 pulso.dato4 = pulso.dato3;
 293              		.loc 1 103 0
 294 014c DD78     		ldrb	r5, [r3, #3]	@ zero_extendqisi2
 295 014e 1D71     		strb	r5, [r3, #4]
 104:main.c        ****                 pulso.dato3 = pulso.dato2;
 296              		.loc 1 104 0
 297 0150 9C78     		ldrb	r4, [r3, #2]	@ zero_extendqisi2
 298 0152 DC70     		strb	r4, [r3, #3]
 105:main.c        ****                 pulso.dato2 = pulso.dato1;
 299              		.loc 1 105 0
 300 0154 5878     		ldrb	r0, [r3, #1]	@ zero_extendqisi2
 301 0156 9870     		strb	r0, [r3, #2]
 106:main.c        ****                 pulso.dato1 = pulso.datoActual;
 302              		.loc 1 106 0
 303 0158 1978     		ldrb	r1, [r3]	@ zero_extendqisi2
ARM GAS  C:\Users\bioin\AppData\Local\Temp\cc4JYU72.s 			page 10


 304 015a 5970     		strb	r1, [r3, #1]
 107:main.c        ****                                 
 305              		.loc 1 107 0
 306 015c 1A70     		strb	r2, [r3]
 109:main.c        ****                     pulso.promedioMovil=(pulso.dato1+pulso.dato2+pulso.dato3+pulso.dato4+pulso.dato
 307              		.loc 1 109 0
 308 015e 8AB1     		cbz	r2, .L13
 109:main.c        ****                     pulso.promedioMovil=(pulso.dato1+pulso.dato2+pulso.dato3+pulso.dato4+pulso.dato
 309              		.loc 1 109 0 is_stmt 0 discriminator 1
 310 0160 81B1     		cbz	r1, .L13
 109:main.c        ****                     pulso.promedioMovil=(pulso.dato1+pulso.dato2+pulso.dato3+pulso.dato4+pulso.dato
 311              		.loc 1 109 0 discriminator 2
 312 0162 78B1     		cbz	r0, .L13
 109:main.c        ****                     pulso.promedioMovil=(pulso.dato1+pulso.dato2+pulso.dato3+pulso.dato4+pulso.dato
 313              		.loc 1 109 0 discriminator 3
 314 0164 74B1     		cbz	r4, .L13
 109:main.c        ****                     pulso.promedioMovil=(pulso.dato1+pulso.dato2+pulso.dato3+pulso.dato4+pulso.dato
 315              		.loc 1 109 0 discriminator 4
 316 0166 6DB1     		cbz	r5, .L13
 110:main.c        ****                     pulso.dedo = 1;
 317              		.loc 1 110 0 is_stmt 1
 318 0168 0A44     		add	r2, r2, r1
 319 016a 0244     		add	r2, r2, r0
 320 016c A318     		adds	r3, r4, r2
 321 016e 2B44     		add	r3, r3, r5
 322 0170 504A     		ldr	r2, .L19+40
 323 0172 82FB0312 		smull	r1, r2, r2, r3
 324 0176 DB17     		asrs	r3, r3, #31
 325 0178 C3EB6203 		rsb	r3, r3, r2, asr #1
 326 017c 4C4A     		ldr	r2, .L19+36
 327 017e 9371     		strb	r3, [r2, #6]
 111:main.c        ****                 }
 328              		.loc 1 111 0
 329 0180 0123     		movs	r3, #1
 330 0182 1372     		strb	r3, [r2, #8]
 331              	.L13:
 114:main.c        ****                 voltaje.dato5 = voltaje.dato4;
 332              		.loc 1 114 0
 333 0184 444B     		ldr	r3, .L19+12
 334 0186 5B79     		ldrb	r3, [r3, #5]	@ zero_extendqisi2
 335 0188 0A2B     		cmp	r3, #10
 336 018a 7FF454AF 		bne	.L11
 115:main.c        ****                 voltaje.dato4 = voltaje.dato3;
 337              		.loc 1 115 0
 338 018e 4449     		ldr	r1, .L19+20
 339 0190 4889     		ldrh	r0, [r1, #10]
 340 0192 8881     		strh	r0, [r1, #12]	@ movhi
 116:main.c        ****                 voltaje.dato3 = voltaje.dato2;
 341              		.loc 1 116 0
 342 0194 0B89     		ldrh	r3, [r1, #8]
 343 0196 4B81     		strh	r3, [r1, #10]	@ movhi
 117:main.c        ****                 voltaje.dato2 = voltaje.dato1;
 344              		.loc 1 117 0
 345 0198 CC88     		ldrh	r4, [r1, #6]
 346 019a 0C81     		strh	r4, [r1, #8]	@ movhi
 118:main.c        ****                 voltaje.dato1 = voltaje.mv;
 347              		.loc 1 118 0
ARM GAS  C:\Users\bioin\AppData\Local\Temp\cc4JYU72.s 			page 11


 348 019c 8A88     		ldrh	r2, [r1, #4]
 349 019e CA80     		strh	r2, [r1, #6]	@ movhi
 119:main.c        ****                 voltaje.promedioMovil=(voltaje.dato1+voltaje.dato2+voltaje.dato3+voltaje.dato4+volt
 350              		.loc 1 119 0
 351 01a0 4D88     		ldrh	r5, [r1, #2]
 352 01a2 8D80     		strh	r5, [r1, #4]	@ movhi
 120:main.c        ****                 if (voltaje.promedioMovil<=1800){
 353              		.loc 1 120 0
 354 01a4 2A44     		add	r2, r2, r5
 355 01a6 2244     		add	r2, r2, r4
 356 01a8 1344     		add	r3, r3, r2
 357 01aa 0344     		add	r3, r3, r0
 358 01ac 414A     		ldr	r2, .L19+40
 359 01ae 82FB0302 		smull	r0, r2, r2, r3
 360 01b2 DB17     		asrs	r3, r3, #31
 361 01b4 C3EB6203 		rsb	r3, r3, r2, asr #1
 362 01b8 9BB2     		uxth	r3, r3
 363 01ba CB81     		strh	r3, [r1, #14]	@ movhi
 121:main.c        ****                     pulso.dedo = 0;
 364              		.loc 1 121 0
 365 01bc B3F5E16F 		cmp	r3, #1800
 366 01c0 02D8     		bhi	.L15
 122:main.c        ****                 }
 367              		.loc 1 122 0
 368 01c2 0022     		movs	r2, #0
 369 01c4 3A4B     		ldr	r3, .L19+36
 370 01c6 1A72     		strb	r2, [r3, #8]
 371              	.L15:
 124:main.c        ****                     LCD_ClearDisplay();
 372              		.loc 1 124 0
 373 01c8 394B     		ldr	r3, .L19+36
 374 01ca 1B7A     		ldrb	r3, [r3, #8]	@ zero_extendqisi2
 375 01cc 002B     		cmp	r3, #0
 376 01ce 3CD0     		beq	.L16
 125:main.c        ****                     LCD_Position(0,0);
 377              		.loc 1 125 0
 378 01d0 0120     		movs	r0, #1
 379 01d2 FFF7FEFF 		bl	LCD_WriteControl
 380              	.LVL19:
 126:main.c        ****                     LCD_PrintString("F.cardiaca: ");
 381              		.loc 1 126 0
 382 01d6 0021     		movs	r1, #0
 383 01d8 0846     		mov	r0, r1
 384 01da FFF7FEFF 		bl	LCD_Position
 385              	.LVL20:
 127:main.c        ****                     LCD_PrintNumber(pulso.promedioMovil);
 386              		.loc 1 127 0
 387 01de 3648     		ldr	r0, .L19+44
 388 01e0 FFF7FEFF 		bl	LCD_PrintString
 389              	.LVL21:
 128:main.c        ****                     LCD_PrintString(" LPM");
 390              		.loc 1 128 0
 391 01e4 324D     		ldr	r5, .L19+36
 392 01e6 A879     		ldrb	r0, [r5, #6]	@ zero_extendqisi2
 393 01e8 FFF7FEFF 		bl	LCD_PrintU32Number
 394              	.LVL22:
 129:main.c        ****                     LCD_Position(1,0);
ARM GAS  C:\Users\bioin\AppData\Local\Temp\cc4JYU72.s 			page 12


 395              		.loc 1 129 0
 396 01ec 3348     		ldr	r0, .L19+48
 397 01ee FFF7FEFF 		bl	LCD_PrintString
 398              	.LVL23:
 130:main.c        ****                     LCD_PrintString("F.senal: ");
 399              		.loc 1 130 0
 400 01f2 0021     		movs	r1, #0
 401 01f4 0120     		movs	r0, #1
 402 01f6 FFF7FEFF 		bl	LCD_Position
 403              	.LVL24:
 131:main.c        ****                     LCD_PrintNumber(pulso.promedioMovil/60);
 404              		.loc 1 131 0
 405 01fa 3148     		ldr	r0, .L19+52
 406 01fc FFF7FEFF 		bl	LCD_PrintString
 407              	.LVL25:
 132:main.c        ****                     LCD_PutChar('.');
 408              		.loc 1 132 0
 409 0200 A879     		ldrb	r0, [r5, #6]	@ zero_extendqisi2
 410 0202 304C     		ldr	r4, .L19+56
 411 0204 A4FB0030 		umull	r3, r0, r4, r0
 412 0208 4009     		lsrs	r0, r0, #5
 413 020a FFF7FEFF 		bl	LCD_PrintU32Number
 414              	.LVL26:
 133:main.c        ****                     LCD_PrintNumber((10*pulso.promedioMovil/60)%10);
 415              		.loc 1 133 0
 416 020e 2E20     		movs	r0, #46
 417 0210 FFF7FEFF 		bl	LCD_PutChar
 418              	.LVL27:
 134:main.c        ****                     LCD_PrintString(" HZ");
 419              		.loc 1 134 0
 420 0214 AA79     		ldrb	r2, [r5, #6]	@ zero_extendqisi2
 421 0216 02EB8202 		add	r2, r2, r2, lsl #2
 422 021a 5300     		lsls	r3, r2, #1
 423 021c 84FB0312 		smull	r1, r2, r4, r3
 424 0220 1A44     		add	r2, r2, r3
 425 0222 DB17     		asrs	r3, r3, #31
 426 0224 C3EB6213 		rsb	r3, r3, r2, asr #5
 427 0228 2248     		ldr	r0, .L19+40
 428 022a 80FB0320 		smull	r2, r0, r0, r3
 429 022e DA17     		asrs	r2, r3, #31
 430 0230 C2EBA000 		rsb	r0, r2, r0, asr #2
 431 0234 00EB8000 		add	r0, r0, r0, lsl #2
 432 0238 4200     		lsls	r2, r0, #1
 433 023a 981A     		subs	r0, r3, r2
 434 023c 80B2     		uxth	r0, r0
 435 023e FFF7FEFF 		bl	LCD_PrintU32Number
 436              	.LVL28:
 135:main.c        ****                 }
 437              		.loc 1 135 0
 438 0242 2148     		ldr	r0, .L19+60
 439 0244 FFF7FEFF 		bl	LCD_PrintString
 440              	.LVL29:
 441 0248 F5E6     		b	.L11
 442              	.L16:
 138:main.c        ****                     LCD_Position(0,0);
 443              		.loc 1 138 0
 444 024a 0120     		movs	r0, #1
ARM GAS  C:\Users\bioin\AppData\Local\Temp\cc4JYU72.s 			page 13


 445 024c FFF7FEFF 		bl	LCD_WriteControl
 446              	.LVL30:
 139:main.c        ****                     LCD_PrintString("F.cardiaca: 0 LPM");
 447              		.loc 1 139 0
 448 0250 0021     		movs	r1, #0
 449 0252 0846     		mov	r0, r1
 450 0254 FFF7FEFF 		bl	LCD_Position
 451              	.LVL31:
 140:main.c        ****                     LCD_Position(1,0);
 452              		.loc 1 140 0
 453 0258 1C48     		ldr	r0, .L19+64
 454 025a FFF7FEFF 		bl	LCD_PrintString
 455              	.LVL32:
 141:main.c        ****                     LCD_PrintString("F.senal: 0 HZ");
 456              		.loc 1 141 0
 457 025e 0021     		movs	r1, #0
 458 0260 0120     		movs	r0, #1
 459 0262 FFF7FEFF 		bl	LCD_Position
 460              	.LVL33:
 142:main.c        ****                     LCD_Position(2,0);
 461              		.loc 1 142 0
 462 0266 1A48     		ldr	r0, .L19+68
 463 0268 FFF7FEFF 		bl	LCD_PrintString
 464              	.LVL34:
 143:main.c        ****                     LCD_PrintString("No hay dedo");
 465              		.loc 1 143 0
 466 026c 0021     		movs	r1, #0
 467 026e 0220     		movs	r0, #2
 468 0270 FFF7FEFF 		bl	LCD_Position
 469              	.LVL35:
 144:main.c        ****                     pulso.dato1 = 0;
 470              		.loc 1 144 0
 471 0274 1748     		ldr	r0, .L19+72
 472 0276 FFF7FEFF 		bl	LCD_PrintString
 473              	.LVL36:
 145:main.c        ****                     pulso.dato2 = 0;
 474              		.loc 1 145 0
 475 027a 0D4B     		ldr	r3, .L19+36
 476 027c 0022     		movs	r2, #0
 477 027e 1A70     		strb	r2, [r3]
 146:main.c        ****                     pulso.dato3 = 0;
 478              		.loc 1 146 0
 479 0280 5A70     		strb	r2, [r3, #1]
 147:main.c        ****                     pulso.dato4 = 0;
 480              		.loc 1 147 0
 481 0282 9A70     		strb	r2, [r3, #2]
 148:main.c        ****                     pulso.dato5 = 0;
 482              		.loc 1 148 0
 483 0284 DA70     		strb	r2, [r3, #3]
 149:main.c        ****                 }
 484              		.loc 1 149 0
 485 0286 1A71     		strb	r2, [r3, #4]
 486 0288 D5E6     		b	.L11
 487              	.L20:
 488 028a 00BF     		.align	2
 489              	.L19:
 490 028c 00000000 		.word	Serial
ARM GAS  C:\Users\bioin\AppData\Local\Temp\cc4JYU72.s 			page 14


 491 0290 00000000 		.word	Ms
 492 0294 00000000 		.word	Medicion
 493 0298 00000000 		.word	tiempo
 494 029c CDCCCCCC 		.word	-858993459
 495 02a0 00000000 		.word	voltaje
 496 02a4 01011000 		.word	1048833
 497 02a8 D34D6210 		.word	274877907
 498 02ac 1F85EB51 		.word	1374389535
 499 02b0 00000000 		.word	pulso
 500 02b4 67666666 		.word	1717986919
 501 02b8 00000000 		.word	.LC0
 502 02bc 10000000 		.word	.LC1
 503 02c0 18000000 		.word	.LC2
 504 02c4 89888888 		.word	-2004318071
 505 02c8 24000000 		.word	.LC3
 506 02cc 28000000 		.word	.LC4
 507 02d0 3C000000 		.word	.LC5
 508 02d4 4C000000 		.word	.LC6
 509              		.cfi_endproc
 510              	.LFE63:
 511              		.size	main, .-main
 512              		.comm	voltaje,16,4
 513              		.comm	tiempo,6,4
 514              		.comm	pulso,9,4
 515              		.section	.rodata.str1.4,"aMS",%progbits,1
 516              		.align	2
 517              	.LC0:
 518 0000 462E6361 		.ascii	"F.cardiaca: \000"
 518      72646961 
 518      63613A20 
 518      00
 519 000d 000000   		.space	3
 520              	.LC1:
 521 0010 204C504D 		.ascii	" LPM\000"
 521      00
 522 0015 000000   		.space	3
 523              	.LC2:
 524 0018 462E7365 		.ascii	"F.senal: \000"
 524      6E616C3A 
 524      2000
 525 0022 0000     		.space	2
 526              	.LC3:
 527 0024 20485A00 		.ascii	" HZ\000"
 528              	.LC4:
 529 0028 462E6361 		.ascii	"F.cardiaca: 0 LPM\000"
 529      72646961 
 529      63613A20 
 529      30204C50 
 529      4D00
 530 003a 0000     		.space	2
 531              	.LC5:
 532 003c 462E7365 		.ascii	"F.senal: 0 HZ\000"
 532      6E616C3A 
 532      20302048 
 532      5A00
 533 004a 0000     		.space	2
 534              	.LC6:
ARM GAS  C:\Users\bioin\AppData\Local\Temp\cc4JYU72.s 			page 15


 535 004c 4E6F2068 		.ascii	"No hay dedo\000"
 535      61792064 
 535      65646F00 
 536              		.text
 537              	.Letext0:
 538              		.file 2 "c:\\program files (x86)\\cypress\\psoc creator\\4.4\\psoc creator\\import\\gnu\\arm\\5.4.
 539              		.file 3 "c:\\program files (x86)\\cypress\\psoc creator\\4.4\\psoc creator\\import\\gnu\\arm\\5.4.
 540              		.file 4 "Generated_Source\\PSoC5/cytypes.h"
 541              		.file 5 "Generated_Source\\PSoC5/core_cm3.h"
 542              		.file 6 "Generated_Source\\PSoC5/Opamp_1.h"
 543              		.file 7 "Generated_Source\\PSoC5/Opamp_2.h"
 544              		.file 8 "Generated_Source\\PSoC5/PGA.h"
 545              		.file 9 "Generated_Source\\PSoC5/Comp.h"
 546              		.file 10 "Generated_Source\\PSoC5/ADC.h"
 547              		.file 11 "Generated_Source\\PSoC5/UART.h"
 548              		.file 12 "Generated_Source\\PSoC5/Contador.h"
 549              		.file 13 "Generated_Source\\PSoC5/LCD.h"
 550              		.file 14 "Generated_Source\\PSoC5/RXInterrupt.h"
 551              		.file 15 "Generated_Source\\PSoC5/Temporizador.h"
 552              		.file 16 "Generated_Source\\PSoC5/PulsoSensor.h"