ARM GAS  C:\Users\Usuario\AppData\Local\Temp\ccwOwhII.s 			page 1


   1              		.syntax unified
   2              		.cpu cortex-m3
   3              		.fpu softvfp
   4              		.eabi_attribute 20, 1
   5              		.eabi_attribute 21, 1
   6              		.eabi_attribute 23, 3
   7              		.eabi_attribute 24, 1
   8              		.eabi_attribute 25, 1
   9              		.eabi_attribute 26, 1
  10              		.eabi_attribute 30, 1
  11              		.eabi_attribute 34, 1
  12              		.eabi_attribute 18, 4
  13              		.thumb
  14              		.syntax unified
  15              		.file	"main.c"
  16              		.text
  17              	.Ltext0:
  18              		.cfi_sections	.debug_frame
  19              		.section	.text.Contador,"ax",%progbits
  20              		.align	2
  21              		.global	Contador
  22              		.thumb
  23              		.thumb_func
  24              		.type	Contador, %function
  25              	Contador:
  26              	.LFB65:
  27              		.file 1 "main.c"
   1:main.c        **** /* ========================================
   2:main.c        ****  *
   3:main.c        ****  * Copyright YOUR COMPANY, THE YEAR
   4:main.c        ****  * All Rights Reserved
   5:main.c        ****  * UNPUBLISHED, LICENSED SOFTWARE.
   6:main.c        ****  *
   7:main.c        ****  * CONFIDENTIAL AND PROPRIETARY INFORMATION
   8:main.c        ****  * WHICH IS THE PROPERTY OF your company.
   9:main.c        ****  *
  10:main.c        ****  * ========================================
  11:main.c        **** */
  12:main.c        **** #include "project.h"
  13:main.c        **** CY_ISR_PROTO(Medicion_1);//Interrupcion Boton_1 medicion del sensor al piso-->medicion1
  14:main.c        **** CY_ISR_PROTO(Medicion_2);//Interrupcion Boton_2 medicion del sensor al objeto-->medicion2
  15:main.c        **** CY_ISR_PROTO(ISR_Timer);//Interrupcion Timer
  16:main.c        **** CY_ISR_PROTO(Contador);//Interrupcion contador
  17:main.c        **** void Reinit(void); // Se declara la funcion de reinicio del sistema
  18:main.c        **** uint16 VALADC=0; //valor ADC sensor de temperatura
  19:main.c        **** uint32 Temperatura=0; // variable temperatura
  20:main.c        **** int8 status=1;// estado del timer
  21:main.c        **** int16 Count_M1=0;//contador medicion 1
  22:main.c        **** int16 Count_M2=0;//contador medicion 2
  23:main.c        **** int8 ban_M1=0;//Bandera interrupcion medicion 1
  24:main.c        **** int8 ban_M2=0;//Bandera interrupcion medicion 2
  25:main.c        **** int8 ban_M11=0;//Bandera contador medicion1 
  26:main.c        **** int8 ban_M22=0;//Bandera contador medicion2
  27:main.c        **** int8 ban_trig1=0;//Bandera Trigger PWM para medicion 1
  28:main.c        **** int8 ban_trig2=0;//Bandera Trigger PWM para medicion 2
  29:main.c        **** uint32 Velocidad=0;// variable velocidad de sonido
  30:main.c        **** uint32 Distancia=0;// variable Distancia sensada
ARM GAS  C:\Users\Usuario\AppData\Local\Temp\ccwOwhII.s 			page 2


  31:main.c        **** uint32 Distancia1=0;// variable Distancia medicion1
  32:main.c        **** uint32 Distancia2=0;// variable Distancia medicion 2
  33:main.c        **** uint32 Distancia3=0;// variable Distancia del objeto
  34:main.c        **** int8 Calculos=1;//Bandera Calculo de mediciones 
  35:main.c        **** uint32 valor1=0;//Valor datos en flanco de subida
  36:main.c        **** uint32 valor2=0;//Valor datos en flanco de bajada
  37:main.c        **** uint32 valor3=0;//Valor siguiente ciclo
  38:main.c        **** uint8 ovf1=0;//Valor desbordamiento del Inputcapture 
  39:main.c        **** uint8 ovf2=0;//Valor desbordamiento del Inputcapture
  40:main.c        **** uint32 CiclosDureza=0;//Valor entre flanco de subida y flanco de bajada 
  41:main.c        **** uint8 cont=0;//contador de registros 
  42:main.c        **** 
  43:main.c        **** int main(void)
  44:main.c        **** {
  45:main.c        ****     CyGlobalIntEnable; /* Enable global interrupts. */
  46:main.c        ****        
  47:main.c        ****     ADC_Start();//Inicializacion ADC
  48:main.c        ****     LCD_Start();//Inicializacion LCD
  49:main.c        ****     Timer_Start();//Inicializacion Timer
  50:main.c        ****     PWM_Start();//Inicializacion PWM
  51:main.c        ****     Counter_Start();//Inicializacion contador
  52:main.c        ****     Timer_isr_StartEx(ISR_Timer);//Inicializacion funcion interrupcion Timer
  53:main.c        ****     Contador_isr_StartEx(Contador);//Inicializacion funcion interrupcion contador
  54:main.c        ****     Boton1_isr_StartEx(Medicion_1);//Inicializacion funcion interrupcion Boton1
  55:main.c        ****     Boton2_isr_StartEx(Medicion_2);//Inicializacion funcion interrupcion Boton2
  56:main.c        ****     Boton2_isr_Disable();//Boton2 comienza desabilitado
  57:main.c        ****     Opamp_Start();//Inicializacion amplificador   
  58:main.c        ****     
  59:main.c        ****     /* Place your initialization/startup code here (e.g. MyInst_Start()) */
  60:main.c        **** 
  61:main.c        ****     for(;;)
  62:main.c        ****     {
  63:main.c        ****         /* Place your application code here. */   
  64:main.c        ****         ADC_StartConvert();//Comienza conversion a datos ADC
  65:main.c        ****         ADC_IsEndConversion(ADC_WAIT_FOR_RESULT);//finaliza conversion a datos ADC
  66:main.c        ****         VALADC = ADC_GetResult16();// Resultado de ADC
  67:main.c        ****         Temperatura=(VALADC*1024/910)-100;//Ecuacion de temperatura (x10--> 1 decimal) basado en el
  68:main.c        ****         if(Calculos)// Entra cada vez que finaliza un ciclo
  69:main.c        ****         {          
  70:main.c        ****             CiclosDureza=(uint32)(ovf1*256)+valor1-valor2; //Distancia en datos entre el flanco de 
  71:main.c        ****             Velocidad=(uint32)33160+(6*Temperatura);//Velocidad del sonido (x100)
  72:main.c        ****             Distancia=Velocidad*CiclosDureza/100000;//Ditancia con Frecuencia de Timer = 2* 500000H
  73:main.c        ****             Calculos=0;//desactiva la bandera de calculos
  74:main.c        ****             Timer_Start();//Reinicia para un proximo registro
  75:main.c        ****             //inicializacion de las variables 
  76:main.c        ****             ovf1=0;
  77:main.c        ****             cont=0;
  78:main.c        ****             valor1=0;
  79:main.c        ****             valor2=0;            
  80:main.c        ****         }
  81:main.c        ****         if (ban_M11){//Bandera activada en la interrupcion del contador
  82:main.c        ****             ban_M11=0;
  83:main.c        ****             Count_M1++;
  84:main.c        ****         }
  85:main.c        ****         if(Count_M1==2)ban_M1=1;// conteos para estabilizacion
  86:main.c        ****         if(ban_M1){
  87:main.c        ****             Pin_Write(0);//Pin trigger en bajo
ARM GAS  C:\Users\Usuario\AppData\Local\Temp\ccwOwhII.s 			page 3


  88:main.c        ****             PWM_Sleep(); //PWM deja de funcionar 
  89:main.c        ****             Distancia1=Distancia;// Se designa la distancia de la medicion 1
  90:main.c        ****             Reinit();// Funcion de reinicio de los valores 
  91:main.c        ****         }
  92:main.c        ****         if (ban_M22){//Bandera activada en la interrupcion del contador
  93:main.c        ****             ban_M22=0;
  94:main.c        ****             Count_M2++;
  95:main.c        ****         }
  96:main.c        ****         if(Count_M2==2){// conteos para estabilizacion
  97:main.c        ****             ban_trig2=0;
  98:main.c        ****             ban_M2=1;}
  99:main.c        ****         
 100:main.c        ****         if(ban_M2){
 101:main.c        ****             Pin_Write(0);//Pin trigger en bajo
 102:main.c        ****             PWM_Sleep();//PWM deja de funcionar 
 103:main.c        ****             Boton1_isr_Enable();//se desabilita el Boton de medicion 1
 104:main.c        ****             Distancia2=Distancia;// Se designa la distancia de la medicion 2
 105:main.c        ****             if(Distancia1>Distancia2)Distancia3 = Distancia1 - Distancia2;// Medicion 1> Medion 2
 106:main.c        ****             else ban_trig2=1;// si no, se activa la bandera  
 107:main.c        ****             Reinit();// Funcion de reinicio de los valores 
 108:main.c        ****         }         
 109:main.c        ****         //Visualizacion de las altura o distancia de medicion 1
 110:main.c        ****         LCD_Position(0,0);
 111:main.c        ****         LCD_PrintString("A1:");
 112:main.c        ****         LCD_PrintNumber(Distancia1/10000);
 113:main.c        ****         LCD_PutChar('.'); //en m con 4 decimales                  
 114:main.c        ****         LCD_PrintNumber(Distancia1/1000%10);
 115:main.c        ****         LCD_PrintNumber(Distancia1/100%10);
 116:main.c        ****         LCD_PrintNumber(Distancia1/10%10);
 117:main.c        ****         LCD_PrintNumber(Distancia1%10);
 118:main.c        ****         LCD_PrintString("m");
 119:main.c        ****         //Visualizacion de las altura o distancia de medicion 2
 120:main.c        ****         LCD_Position(1,0);
 121:main.c        ****         LCD_PrintString("A2:");
 122:main.c        ****         LCD_PrintNumber(Distancia2/10000);
 123:main.c        ****         LCD_PutChar('.');  //en m con 4 decimales                 
 124:main.c        ****         LCD_PrintNumber(Distancia2/1000%10);
 125:main.c        ****         LCD_PrintNumber(Distancia2/100%10);
 126:main.c        ****         LCD_PrintNumber(Distancia2/10%10);
 127:main.c        ****         LCD_PrintNumber(Distancia2%10);
 128:main.c        ****         LCD_PrintString("m");       
 129:main.c        ****         LCD_Position(2,3);
 130:main.c        ****         //Visualizacion de las altura o distancia del objeto medido
 131:main.c        ****         LCD_PrintString("Altura objeto:");
 132:main.c        ****         LCD_Position(3,2);
 133:main.c        ****         LCD_PrintNumber(Distancia3/100);
 134:main.c        ****         LCD_PutChar('.');//en cm con 2 decimales                   
 135:main.c        ****         LCD_PrintNumber(Distancia3/10%10);
 136:main.c        ****         LCD_PrintNumber(Distancia3%10);
 137:main.c        ****         LCD_PrintString("cm");
 138:main.c        ****         LCD_PutChar('-');
 139:main.c        ****         LCD_PrintNumber(Distancia3/10000);
 140:main.c        ****         LCD_PutChar('.');//en m con 4 decimales               
 141:main.c        ****         LCD_PrintNumber(Distancia3/1000%10);
 142:main.c        ****         LCD_PrintNumber(Distancia3/100%10);
 143:main.c        ****         LCD_PrintNumber(Distancia3/10%10);
 144:main.c        ****         LCD_PrintNumber(Distancia3%10);
ARM GAS  C:\Users\Usuario\AppData\Local\Temp\ccwOwhII.s 			page 4


 145:main.c        ****         LCD_PrintString("m");
 146:main.c        ****         //Visualizacion de la temperatura 
 147:main.c        ****         LCD_Position(0,13);
 148:main.c        ****         LCD_PrintString("Temp:");
 149:main.c        ****         LCD_Position(1,13);  
 150:main.c        ****         LCD_PrintNumber(Temperatura/10);                  
 151:main.c        ****         LCD_PutChar('.');// en ºc con 1 decimal                  
 152:main.c        ****         LCD_PrintNumber(Temperatura%10);
 153:main.c        ****         LCD_PutChar(0xDF);
 154:main.c        ****         LCD_PutChar('C');
 155:main.c        ****         CyDelay(500);
 156:main.c        ****         LCD_ClearDisplay();       
 157:main.c        ****    }
 158:main.c        **** }
 159:main.c        **** CY_ISR(ISR_Timer){
 160:main.c        ****     
 161:main.c        ****     status=Timer_ReadStatusRegister();//Leer el registro de estado
 162:main.c        ****     if(status & Timer_STATUS_TC) //Entra aquí si la interrupción fue por TC
 163:main.c        ****     {
 164:main.c        ****         if(cont==1 )ovf1++; //Cuenta número de desbordamientos durante tiempo en alto
 165:main.c        ****         if(cont==2 )ovf2++; //Cuenta número de desbordamientos durante tiempo en bajo
 166:main.c        ****     }
 167:main.c        ****     if(status & Timer_STATUS_CAPTURE) //Entra aquí si la interrupción fue captura
 168:main.c        ****     {
 169:main.c        ****         if(cont==0)
 170:main.c        ****         {
 171:main.c        ****             valor1=Timer_ReadCapture(); //Obtiene primer valor
 172:main.c        ****             cont++;
 173:main.c        ****         }
 174:main.c        ****         else if(cont==1)
 175:main.c        ****         {
 176:main.c        ****             valor2=Timer_ReadCapture(); //Obtiene segundo valor
 177:main.c        ****             cont++;
 178:main.c        ****         }
 179:main.c        ****         else if(cont==2 )
 180:main.c        ****         {
 181:main.c        ****             Timer_Stop(); //Detiene el timer
 182:main.c        ****             valor3=Timer_ReadCapture(); //Obtiene tercer valor
 183:main.c        ****             Calculos=1; //Bandera que indica cálculos y visualización
 184:main.c        ****         }
 185:main.c        ****     }
 186:main.c        **** }
 187:main.c        **** 
 188:main.c        **** CY_ISR(Contador){
  28              		.loc 1 188 0
  29              		.cfi_startproc
  30              		@ args = 0, pretend = 0, frame = 0
  31              		@ frame_needed = 0, uses_anonymous_args = 0
  32              		@ link register save eliminated.
 189:main.c        ****     if(ban_trig1)ban_M11=1;//Activacion Bandera contador medicion 1
  33              		.loc 1 189 0
  34 0000 074B     		ldr	r3, .L4
  35 0002 93F90030 		ldrsb	r3, [r3]
  36 0006 13B1     		cbz	r3, .L2
  37              		.loc 1 189 0 is_stmt 0 discriminator 1
  38 0008 0122     		movs	r2, #1
  39 000a 054B     		ldr	r3, .L4
ARM GAS  C:\Users\Usuario\AppData\Local\Temp\ccwOwhII.s 			page 5


  40 000c 5A70     		strb	r2, [r3, #1]
  41              	.L2:
 190:main.c        ****     if(ban_trig2)ban_M22=1;//Activacion Bandera contador medicion 2
  42              		.loc 1 190 0 is_stmt 1
  43 000e 044B     		ldr	r3, .L4
  44 0010 93F90230 		ldrsb	r3, [r3, #2]
  45 0014 13B1     		cbz	r3, .L1
  46              		.loc 1 190 0 is_stmt 0 discriminator 1
  47 0016 0122     		movs	r2, #1
  48 0018 014B     		ldr	r3, .L4
  49 001a DA70     		strb	r2, [r3, #3]
  50              	.L1:
  51 001c 7047     		bx	lr
  52              	.L5:
  53 001e 00BF     		.align	2
  54              	.L4:
  55 0020 00000000 		.word	.LANCHOR0
  56              		.cfi_endproc
  57              	.LFE65:
  58              		.size	Contador, .-Contador
  59              		.section	.text.ISR_Timer,"ax",%progbits
  60              		.align	2
  61              		.global	ISR_Timer
  62              		.thumb
  63              		.thumb_func
  64              		.type	ISR_Timer, %function
  65              	ISR_Timer:
  66              	.LFB64:
 159:main.c        ****     
  67              		.loc 1 159 0 is_stmt 1
  68              		.cfi_startproc
  69              		@ args = 0, pretend = 0, frame = 0
  70              		@ frame_needed = 0, uses_anonymous_args = 0
  71 0000 08B5     		push	{r3, lr}
  72              		.cfi_def_cfa_offset 8
  73              		.cfi_offset 3, -8
  74              		.cfi_offset 14, -4
 161:main.c        ****     if(status & Timer_STATUS_TC) //Entra aquí si la interrupción fue por TC
  75              		.loc 1 161 0
  76 0002 FFF7FEFF 		bl	Timer_ReadStatusRegister
  77              	.LVL0:
  78 0006 1B4B     		ldr	r3, .L13
  79 0008 1870     		strb	r0, [r3]
 162:main.c        ****     {
  80              		.loc 1 162 0
  81 000a 10F0010F 		tst	r0, #1
  82 000e 0DD0     		beq	.L7
 164:main.c        ****         if(cont==2 )ovf2++; //Cuenta número de desbordamientos durante tiempo en bajo
  83              		.loc 1 164 0
  84 0010 194B     		ldr	r3, .L13+4
  85 0012 1B79     		ldrb	r3, [r3, #4]	@ zero_extendqisi2
  86 0014 012B     		cmp	r3, #1
  87 0016 03D1     		bne	.L8
 164:main.c        ****         if(cont==2 )ovf2++; //Cuenta número de desbordamientos durante tiempo en bajo
  88              		.loc 1 164 0 is_stmt 0 discriminator 1
  89 0018 1749     		ldr	r1, .L13+4
  90 001a 4A79     		ldrb	r2, [r1, #5]	@ zero_extendqisi2
ARM GAS  C:\Users\Usuario\AppData\Local\Temp\ccwOwhII.s 			page 6


  91 001c 0132     		adds	r2, r2, #1
  92 001e 4A71     		strb	r2, [r1, #5]
  93              	.L8:
 165:main.c        ****     }
  94              		.loc 1 165 0 is_stmt 1
  95 0020 022B     		cmp	r3, #2
  96 0022 03D1     		bne	.L7
 165:main.c        ****     }
  97              		.loc 1 165 0 is_stmt 0 discriminator 1
  98 0024 144A     		ldr	r2, .L13+4
  99 0026 9379     		ldrb	r3, [r2, #6]	@ zero_extendqisi2
 100 0028 0133     		adds	r3, r3, #1
 101 002a 9371     		strb	r3, [r2, #6]
 102              	.L7:
 167:main.c        ****     {
 103              		.loc 1 167 0 is_stmt 1
 104 002c 10F0020F 		tst	r0, #2
 105 0030 1FD0     		beq	.L6
 169:main.c        ****         {
 106              		.loc 1 169 0
 107 0032 114B     		ldr	r3, .L13+4
 108 0034 1B79     		ldrb	r3, [r3, #4]	@ zero_extendqisi2
 109 0036 3BB9     		cbnz	r3, .L10
 171:main.c        ****             cont++;
 110              		.loc 1 171 0
 111 0038 FFF7FEFF 		bl	Timer_ReadCapture
 112              	.LVL1:
 113 003c 0E4B     		ldr	r3, .L13+4
 114 003e 9860     		str	r0, [r3, #8]
 172:main.c        ****         }
 115              		.loc 1 172 0
 116 0040 1A79     		ldrb	r2, [r3, #4]	@ zero_extendqisi2
 117 0042 0132     		adds	r2, r2, #1
 118 0044 1A71     		strb	r2, [r3, #4]
 119 0046 08BD     		pop	{r3, pc}
 120              	.L10:
 174:main.c        ****         {
 121              		.loc 1 174 0
 122 0048 012B     		cmp	r3, #1
 123 004a 07D1     		bne	.L11
 176:main.c        ****             cont++;
 124              		.loc 1 176 0
 125 004c FFF7FEFF 		bl	Timer_ReadCapture
 126              	.LVL2:
 127 0050 094B     		ldr	r3, .L13+4
 128 0052 D860     		str	r0, [r3, #12]
 177:main.c        ****         }
 129              		.loc 1 177 0
 130 0054 1A79     		ldrb	r2, [r3, #4]	@ zero_extendqisi2
 131 0056 0132     		adds	r2, r2, #1
 132 0058 1A71     		strb	r2, [r3, #4]
 133 005a 08BD     		pop	{r3, pc}
 134              	.L11:
 179:main.c        ****         {
 135              		.loc 1 179 0
 136 005c 022B     		cmp	r3, #2
 137 005e 08D1     		bne	.L6
ARM GAS  C:\Users\Usuario\AppData\Local\Temp\ccwOwhII.s 			page 7


 181:main.c        ****             valor3=Timer_ReadCapture(); //Obtiene tercer valor
 138              		.loc 1 181 0
 139 0060 FFF7FEFF 		bl	Timer_Stop
 140              	.LVL3:
 182:main.c        ****             Calculos=1; //Bandera que indica cálculos y visualización
 141              		.loc 1 182 0
 142 0064 FFF7FEFF 		bl	Timer_ReadCapture
 143              	.LVL4:
 144 0068 034B     		ldr	r3, .L13+4
 145 006a 1861     		str	r0, [r3, #16]
 183:main.c        ****         }
 146              		.loc 1 183 0
 147 006c 0122     		movs	r2, #1
 148 006e 014B     		ldr	r3, .L13
 149 0070 5A70     		strb	r2, [r3, #1]
 150              	.L6:
 151 0072 08BD     		pop	{r3, pc}
 152              	.L14:
 153              		.align	2
 154              	.L13:
 155 0074 00000000 		.word	.LANCHOR1
 156 0078 00000000 		.word	.LANCHOR0
 157              		.cfi_endproc
 158              	.LFE64:
 159              		.size	ISR_Timer, .-ISR_Timer
 160              		.section	.text.Medicion_1,"ax",%progbits
 161              		.align	2
 162              		.global	Medicion_1
 163              		.thumb
 164              		.thumb_func
 165              		.type	Medicion_1, %function
 166              	Medicion_1:
 167              	.LFB66:
 191:main.c        **** }
 192:main.c        **** 
 193:main.c        **** CY_ISR(Medicion_1){
 168              		.loc 1 193 0
 169              		.cfi_startproc
 170              		@ args = 0, pretend = 0, frame = 0
 171              		@ frame_needed = 0, uses_anonymous_args = 0
 172 0000 08B5     		push	{r3, lr}
 173              		.cfi_def_cfa_offset 8
 174              		.cfi_offset 3, -8
 175              		.cfi_offset 14, -4
 194:main.c        ****     Boton2_isr_Enable();//Se habilita el boton 2
 176              		.loc 1 194 0
 177 0002 FFF7FEFF 		bl	Boton2_isr_Enable
 178              	.LVL5:
 195:main.c        ****     PWM_Start();//inicializacion de PWM
 179              		.loc 1 195 0
 180 0006 FFF7FEFF 		bl	PWM_Start
 181              	.LVL6:
 196:main.c        ****     Pin_Write(1);//Pin trigger PWM en alto
 182              		.loc 1 196 0
 183 000a 0120     		movs	r0, #1
 184 000c FFF7FEFF 		bl	Pin_Write
 185              	.LVL7:
ARM GAS  C:\Users\Usuario\AppData\Local\Temp\ccwOwhII.s 			page 8


 197:main.c        ****     ban_trig1=1;//Activacion de contador 
 186              		.loc 1 197 0
 187 0010 024B     		ldr	r3, .L17
 188 0012 0122     		movs	r2, #1
 189 0014 1A70     		strb	r2, [r3]
 198:main.c        ****     Distancia1=0;//inicializacion del valor de distancia 
 190              		.loc 1 198 0
 191 0016 0022     		movs	r2, #0
 192 0018 5A61     		str	r2, [r3, #20]
 193 001a 08BD     		pop	{r3, pc}
 194              	.L18:
 195              		.align	2
 196              	.L17:
 197 001c 00000000 		.word	.LANCHOR0
 198              		.cfi_endproc
 199              	.LFE66:
 200              		.size	Medicion_1, .-Medicion_1
 201              		.section	.text.Medicion_2,"ax",%progbits
 202              		.align	2
 203              		.global	Medicion_2
 204              		.thumb
 205              		.thumb_func
 206              		.type	Medicion_2, %function
 207              	Medicion_2:
 208              	.LFB67:
 199:main.c        **** }
 200:main.c        **** CY_ISR(Medicion_2){
 209              		.loc 1 200 0
 210              		.cfi_startproc
 211              		@ args = 0, pretend = 0, frame = 0
 212              		@ frame_needed = 0, uses_anonymous_args = 0
 213 0000 08B5     		push	{r3, lr}
 214              		.cfi_def_cfa_offset 8
 215              		.cfi_offset 3, -8
 216              		.cfi_offset 14, -4
 201:main.c        ****     Boton1_isr_Disable();// se deshabilita el boton 1
 217              		.loc 1 201 0
 218 0002 FFF7FEFF 		bl	Boton1_isr_Disable
 219              	.LVL8:
 202:main.c        ****     PWM_Start();//Inicializacion de PWM
 220              		.loc 1 202 0
 221 0006 FFF7FEFF 		bl	PWM_Start
 222              	.LVL9:
 203:main.c        ****     Pin_Write(1);//Pin trigger PWM en alto
 223              		.loc 1 203 0
 224 000a 0120     		movs	r0, #1
 225 000c FFF7FEFF 		bl	Pin_Write
 226              	.LVL10:
 204:main.c        ****     ban_trig2=1;  //Activacion de contador   
 227              		.loc 1 204 0
 228 0010 034B     		ldr	r3, .L21
 229 0012 0122     		movs	r2, #1
 230 0014 9A70     		strb	r2, [r3, #2]
 205:main.c        ****     Distancia2=0;//inicializacion del valor de distancia 
 231              		.loc 1 205 0
 232 0016 0022     		movs	r2, #0
 233 0018 9A61     		str	r2, [r3, #24]
ARM GAS  C:\Users\Usuario\AppData\Local\Temp\ccwOwhII.s 			page 9


 206:main.c        ****     Distancia3=0;//inicializacion del valor de distancia 
 234              		.loc 1 206 0
 235 001a DA61     		str	r2, [r3, #28]
 236 001c 08BD     		pop	{r3, pc}
 237              	.L22:
 238 001e 00BF     		.align	2
 239              	.L21:
 240 0020 00000000 		.word	.LANCHOR0
 241              		.cfi_endproc
 242              	.LFE67:
 243              		.size	Medicion_2, .-Medicion_2
 244              		.section	.text.Reinit,"ax",%progbits
 245              		.align	2
 246              		.global	Reinit
 247              		.thumb
 248              		.thumb_func
 249              		.type	Reinit, %function
 250              	Reinit:
 251              	.LFB68:
 207:main.c        **** }
 208:main.c        **** void Reinit(){ // Se define la funcion reinicio, la cual permite llevar al estado inicial todas las
 252              		.loc 1 208 0
 253              		.cfi_startproc
 254              		@ args = 0, pretend = 0, frame = 0
 255              		@ frame_needed = 0, uses_anonymous_args = 0
 256 0000 08B5     		push	{r3, lr}
 257              		.cfi_def_cfa_offset 8
 258              		.cfi_offset 3, -8
 259              		.cfi_offset 14, -4
 209:main.c        ****     LCD_ClearDisplay();
 260              		.loc 1 209 0
 261 0002 0120     		movs	r0, #1
 262 0004 FFF7FEFF 		bl	LCD_WriteControl
 263              	.LVL11:
 210:main.c        ****     status=1;
 264              		.loc 1 210 0
 265 0008 0C49     		ldr	r1, .L25
 266 000a 0120     		movs	r0, #1
 267 000c 0870     		strb	r0, [r1]
 211:main.c        ****     Count_M1=0;
 268              		.loc 1 211 0
 269 000e 0C4B     		ldr	r3, .L25+4
 270 0010 0022     		movs	r2, #0
 271 0012 1A84     		strh	r2, [r3, #32]	@ movhi
 212:main.c        ****     Count_M2=0;
 272              		.loc 1 212 0
 273 0014 5A84     		strh	r2, [r3, #34]	@ movhi
 213:main.c        ****     ban_M1=0;
 274              		.loc 1 213 0
 275 0016 83F82420 		strb	r2, [r3, #36]
 214:main.c        ****     ban_M2=0;
 276              		.loc 1 214 0
 277 001a 83F82520 		strb	r2, [r3, #37]
 215:main.c        ****     ban_M11=0;
 278              		.loc 1 215 0
 279 001e 5A70     		strb	r2, [r3, #1]
 216:main.c        ****     ban_M22=0;
ARM GAS  C:\Users\Usuario\AppData\Local\Temp\ccwOwhII.s 			page 10


 280              		.loc 1 216 0
 281 0020 DA70     		strb	r2, [r3, #3]
 217:main.c        ****     Distancia=0;
 282              		.loc 1 217 0
 283 0022 9A62     		str	r2, [r3, #40]
 218:main.c        ****     ban_trig1=0;
 284              		.loc 1 218 0
 285 0024 1A70     		strb	r2, [r3]
 219:main.c        ****     ban_trig2=0;
 286              		.loc 1 219 0
 287 0026 9A70     		strb	r2, [r3, #2]
 220:main.c        ****     Calculos=1;
 288              		.loc 1 220 0
 289 0028 4870     		strb	r0, [r1, #1]
 221:main.c        ****     valor1=0;
 290              		.loc 1 221 0
 291 002a 9A60     		str	r2, [r3, #8]
 222:main.c        ****     valor2=0;
 292              		.loc 1 222 0
 293 002c DA60     		str	r2, [r3, #12]
 223:main.c        ****     valor3=0;
 294              		.loc 1 223 0
 295 002e 1A61     		str	r2, [r3, #16]
 224:main.c        ****     ovf1=0;
 296              		.loc 1 224 0
 297 0030 5A71     		strb	r2, [r3, #5]
 225:main.c        ****     ovf2=0;
 298              		.loc 1 225 0
 299 0032 9A71     		strb	r2, [r3, #6]
 226:main.c        ****     CiclosDureza=0;
 300              		.loc 1 226 0
 301 0034 DA62     		str	r2, [r3, #44]
 227:main.c        ****     cont=0;   
 302              		.loc 1 227 0
 303 0036 1A71     		strb	r2, [r3, #4]
 304 0038 08BD     		pop	{r3, pc}
 305              	.L26:
 306 003a 00BF     		.align	2
 307              	.L25:
 308 003c 00000000 		.word	.LANCHOR1
 309 0040 00000000 		.word	.LANCHOR0
 310              		.cfi_endproc
 311              	.LFE68:
 312              		.size	Reinit, .-Reinit
 313              		.section	.text.main,"ax",%progbits
 314              		.align	2
 315              		.global	main
 316              		.thumb
 317              		.thumb_func
 318              		.type	main, %function
 319              	main:
 320              	.LFB63:
  44:main.c        ****     CyGlobalIntEnable; /* Enable global interrupts. */
 321              		.loc 1 44 0
 322              		.cfi_startproc
 323              		@ Volatile: function does not return.
 324              		@ args = 0, pretend = 0, frame = 0
ARM GAS  C:\Users\Usuario\AppData\Local\Temp\ccwOwhII.s 			page 11


 325              		@ frame_needed = 0, uses_anonymous_args = 0
 326 0000 80B5     		push	{r7, lr}
 327              		.cfi_def_cfa_offset 8
 328              		.cfi_offset 7, -8
 329              		.cfi_offset 14, -4
  45:main.c        ****        
 330              		.loc 1 45 0
 331              		.syntax unified
 332              	@ 45 "main.c" 1
 333 0002 62B6     		CPSIE   i
 334              	@ 0 "" 2
  47:main.c        ****     LCD_Start();//Inicializacion LCD
 335              		.loc 1 47 0
 336              		.thumb
 337              		.syntax unified
 338 0004 FFF7FEFF 		bl	ADC_Start
 339              	.LVL12:
  48:main.c        ****     Timer_Start();//Inicializacion Timer
 340              		.loc 1 48 0
 341 0008 FFF7FEFF 		bl	LCD_Start
 342              	.LVL13:
  49:main.c        ****     PWM_Start();//Inicializacion PWM
 343              		.loc 1 49 0
 344 000c FFF7FEFF 		bl	Timer_Start
 345              	.LVL14:
  50:main.c        ****     Counter_Start();//Inicializacion contador
 346              		.loc 1 50 0
 347 0010 FFF7FEFF 		bl	PWM_Start
 348              	.LVL15:
  51:main.c        ****     Timer_isr_StartEx(ISR_Timer);//Inicializacion funcion interrupcion Timer
 349              		.loc 1 51 0
 350 0014 FFF7FEFF 		bl	Counter_Start
 351              	.LVL16:
  52:main.c        ****     Contador_isr_StartEx(Contador);//Inicializacion funcion interrupcion contador
 352              		.loc 1 52 0
 353 0018 4848     		ldr	r0, .L39
 354 001a FFF7FEFF 		bl	Timer_isr_StartEx
 355              	.LVL17:
  53:main.c        ****     Boton1_isr_StartEx(Medicion_1);//Inicializacion funcion interrupcion Boton1
 356              		.loc 1 53 0
 357 001e 4848     		ldr	r0, .L39+4
 358 0020 FFF7FEFF 		bl	Contador_isr_StartEx
 359              	.LVL18:
  54:main.c        ****     Boton2_isr_StartEx(Medicion_2);//Inicializacion funcion interrupcion Boton2
 360              		.loc 1 54 0
 361 0024 4748     		ldr	r0, .L39+8
 362 0026 FFF7FEFF 		bl	Boton1_isr_StartEx
 363              	.LVL19:
  55:main.c        ****     Boton2_isr_Disable();//Boton2 comienza desabilitado
 364              		.loc 1 55 0
 365 002a 4748     		ldr	r0, .L39+12
 366 002c FFF7FEFF 		bl	Boton2_isr_StartEx
 367              	.LVL20:
  56:main.c        ****     Opamp_Start();//Inicializacion amplificador   
 368              		.loc 1 56 0
 369 0030 FFF7FEFF 		bl	Boton2_isr_Disable
 370              	.LVL21:
ARM GAS  C:\Users\Usuario\AppData\Local\Temp\ccwOwhII.s 			page 12


  57:main.c        ****     
 371              		.loc 1 57 0
 372 0034 FFF7FEFF 		bl	Opamp_Start
 373              	.LVL22:
 374              	.L37:
  64:main.c        ****         ADC_IsEndConversion(ADC_WAIT_FOR_RESULT);//finaliza conversion a datos ADC
 375              		.loc 1 64 0
 376 0038 FFF7FEFF 		bl	ADC_StartConvert
 377              	.LVL23:
  65:main.c        ****         VALADC = ADC_GetResult16();// Resultado de ADC
 378              		.loc 1 65 0
 379 003c 0020     		movs	r0, #0
 380 003e FFF7FEFF 		bl	ADC_IsEndConversion
 381              	.LVL24:
  66:main.c        ****         Temperatura=(VALADC*1024/910)-100;//Ecuacion de temperatura (x10--> 1 decimal) basado en el
 382              		.loc 1 66 0
 383 0042 FFF7FEFF 		bl	ADC_GetResult16
 384              	.LVL25:
 385 0046 80B2     		uxth	r0, r0
 386 0048 404A     		ldr	r2, .L39+16
 387 004a 1086     		strh	r0, [r2, #48]	@ movhi
  67:main.c        ****         if(Calculos)// Entra cada vez que finaliza un ciclo
 388              		.loc 1 67 0
 389 004c 8002     		lsls	r0, r0, #10
 390 004e 404B     		ldr	r3, .L39+20
 391 0050 83FB0013 		smull	r1, r3, r3, r0
 392 0054 1844     		add	r0, r0, r3
 393 0056 4012     		asrs	r0, r0, #9
 394 0058 6438     		subs	r0, r0, #100
 395 005a 5063     		str	r0, [r2, #52]
  68:main.c        ****         {          
 396              		.loc 1 68 0
 397 005c 3D4B     		ldr	r3, .L39+24
 398 005e 93F90130 		ldrsb	r3, [r3, #1]
 399 0062 FBB1     		cbz	r3, .L28
  70:main.c        ****             Velocidad=(uint32)33160+(6*Temperatura);//Velocidad del sonido (x100)
 400              		.loc 1 70 0
 401 0064 1446     		mov	r4, r2
 402 0066 5279     		ldrb	r2, [r2, #5]	@ zero_extendqisi2
 403 0068 A368     		ldr	r3, [r4, #8]
 404 006a 03EB0223 		add	r3, r3, r2, lsl #8
 405 006e E268     		ldr	r2, [r4, #12]
 406 0070 9A1A     		subs	r2, r3, r2
 407 0072 E262     		str	r2, [r4, #44]
  71:main.c        ****             Distancia=Velocidad*CiclosDureza/100000;//Ditancia con Frecuencia de Timer = 2* 500000H
 408              		.loc 1 71 0
 409 0074 00EB4000 		add	r0, r0, r0, lsl #1
 410 0078 4300     		lsls	r3, r0, #1
 411 007a 03F50143 		add	r3, r3, #33024
 412 007e 8833     		adds	r3, r3, #136
 413 0080 A363     		str	r3, [r4, #56]
  72:main.c        ****             Calculos=0;//desactiva la bandera de calculos
 414              		.loc 1 72 0
 415 0082 03FB02F3 		mul	r3, r3, r2
 416 0086 5B09     		lsrs	r3, r3, #5
 417 0088 334A     		ldr	r2, .L39+28
 418 008a A2FB0323 		umull	r2, r3, r2, r3
ARM GAS  C:\Users\Usuario\AppData\Local\Temp\ccwOwhII.s 			page 13


 419 008e DB09     		lsrs	r3, r3, #7
 420 0090 A362     		str	r3, [r4, #40]
  73:main.c        ****             Timer_Start();//Reinicia para un proximo registro
 421              		.loc 1 73 0
 422 0092 0025     		movs	r5, #0
 423 0094 2F4B     		ldr	r3, .L39+24
 424 0096 5D70     		strb	r5, [r3, #1]
  74:main.c        ****             //inicializacion de las variables 
 425              		.loc 1 74 0
 426 0098 FFF7FEFF 		bl	Timer_Start
 427              	.LVL26:
  76:main.c        ****             cont=0;
 428              		.loc 1 76 0
 429 009c 6571     		strb	r5, [r4, #5]
  77:main.c        ****             valor1=0;
 430              		.loc 1 77 0
 431 009e 2571     		strb	r5, [r4, #4]
  78:main.c        ****             valor2=0;            
 432              		.loc 1 78 0
 433 00a0 A560     		str	r5, [r4, #8]
  79:main.c        ****         }
 434              		.loc 1 79 0
 435 00a2 E560     		str	r5, [r4, #12]
 436              	.L28:
  81:main.c        ****             ban_M11=0;
 437              		.loc 1 81 0
 438 00a4 294B     		ldr	r3, .L39+16
 439 00a6 93F90130 		ldrsb	r3, [r3, #1]
 440 00aa 2BB1     		cbz	r3, .L29
  82:main.c        ****             Count_M1++;
 441              		.loc 1 82 0
 442 00ac 274B     		ldr	r3, .L39+16
 443 00ae 0022     		movs	r2, #0
 444 00b0 5A70     		strb	r2, [r3, #1]
  83:main.c        ****         }
 445              		.loc 1 83 0
 446 00b2 1A8C     		ldrh	r2, [r3, #32]
 447 00b4 0132     		adds	r2, r2, #1
 448 00b6 1A84     		strh	r2, [r3, #32]	@ movhi
 449              	.L29:
  85:main.c        ****         if(ban_M1){
 450              		.loc 1 85 0
 451 00b8 244B     		ldr	r3, .L39+16
 452 00ba B3F92030 		ldrsh	r3, [r3, #32]
 453 00be 022B     		cmp	r3, #2
 454 00c0 03D1     		bne	.L30
  85:main.c        ****         if(ban_M1){
 455              		.loc 1 85 0 is_stmt 0 discriminator 1
 456 00c2 0122     		movs	r2, #1
 457 00c4 214B     		ldr	r3, .L39+16
 458 00c6 83F82420 		strb	r2, [r3, #36]
 459              	.L30:
  86:main.c        ****             Pin_Write(0);//Pin trigger en bajo
 460              		.loc 1 86 0 is_stmt 1
 461 00ca 204B     		ldr	r3, .L39+16
 462 00cc 93F92430 		ldrsb	r3, [r3, #36]
 463 00d0 4BB1     		cbz	r3, .L31
ARM GAS  C:\Users\Usuario\AppData\Local\Temp\ccwOwhII.s 			page 14


  87:main.c        ****             PWM_Sleep(); //PWM deja de funcionar 
 464              		.loc 1 87 0
 465 00d2 0020     		movs	r0, #0
 466 00d4 FFF7FEFF 		bl	Pin_Write
 467              	.LVL27:
  88:main.c        ****             Distancia1=Distancia;// Se designa la distancia de la medicion 1
 468              		.loc 1 88 0
 469 00d8 FFF7FEFF 		bl	PWM_Sleep
 470              	.LVL28:
  89:main.c        ****             Reinit();// Funcion de reinicio de los valores 
 471              		.loc 1 89 0
 472 00dc 1B4B     		ldr	r3, .L39+16
 473 00de 9A6A     		ldr	r2, [r3, #40]
 474 00e0 5A61     		str	r2, [r3, #20]
  90:main.c        ****         }
 475              		.loc 1 90 0
 476 00e2 FFF7FEFF 		bl	Reinit
 477              	.LVL29:
 478              	.L31:
  92:main.c        ****             ban_M22=0;
 479              		.loc 1 92 0
 480 00e6 194B     		ldr	r3, .L39+16
 481 00e8 93F90330 		ldrsb	r3, [r3, #3]
 482 00ec 2BB1     		cbz	r3, .L32
  93:main.c        ****             Count_M2++;
 483              		.loc 1 93 0
 484 00ee 174B     		ldr	r3, .L39+16
 485 00f0 0022     		movs	r2, #0
 486 00f2 DA70     		strb	r2, [r3, #3]
  94:main.c        ****         }
 487              		.loc 1 94 0
 488 00f4 5A8C     		ldrh	r2, [r3, #34]
 489 00f6 0132     		adds	r2, r2, #1
 490 00f8 5A84     		strh	r2, [r3, #34]	@ movhi
 491              	.L32:
  96:main.c        ****             ban_trig2=0;
 492              		.loc 1 96 0
 493 00fa 144B     		ldr	r3, .L39+16
 494 00fc B3F92230 		ldrsh	r3, [r3, #34]
 495 0100 022B     		cmp	r3, #2
 496 0102 05D1     		bne	.L33
  97:main.c        ****             ban_M2=1;}
 497              		.loc 1 97 0
 498 0104 114B     		ldr	r3, .L39+16
 499 0106 0022     		movs	r2, #0
 500 0108 9A70     		strb	r2, [r3, #2]
  98:main.c        ****         
 501              		.loc 1 98 0
 502 010a 0122     		movs	r2, #1
 503 010c 83F82520 		strb	r2, [r3, #37]
 504              	.L33:
 100:main.c        ****             Pin_Write(0);//Pin trigger en bajo
 505              		.loc 1 100 0
 506 0110 0E4B     		ldr	r3, .L39+16
 507 0112 93F92530 		ldrsb	r3, [r3, #37]
 508 0116 33B3     		cbz	r3, .L34
 101:main.c        ****             PWM_Sleep();//PWM deja de funcionar 
ARM GAS  C:\Users\Usuario\AppData\Local\Temp\ccwOwhII.s 			page 15


 509              		.loc 1 101 0
 510 0118 0020     		movs	r0, #0
 511 011a FFF7FEFF 		bl	Pin_Write
 512              	.LVL30:
 102:main.c        ****             Boton1_isr_Enable();//se desabilita el Boton de medicion 1
 513              		.loc 1 102 0
 514 011e FFF7FEFF 		bl	PWM_Sleep
 515              	.LVL31:
 103:main.c        ****             Distancia2=Distancia;// Se designa la distancia de la medicion 2
 516              		.loc 1 103 0
 517 0122 FFF7FEFF 		bl	Boton1_isr_Enable
 518              	.LVL32:
 104:main.c        ****             if(Distancia1>Distancia2)Distancia3 = Distancia1 - Distancia2;// Medicion 1> Medion 2
 519              		.loc 1 104 0
 520 0126 094B     		ldr	r3, .L39+16
 521 0128 9A6A     		ldr	r2, [r3, #40]
 522 012a 9A61     		str	r2, [r3, #24]
 105:main.c        ****             else ban_trig2=1;// si no, se activa la bandera  
 523              		.loc 1 105 0
 524 012c 5B69     		ldr	r3, [r3, #20]
 525 012e 9A42     		cmp	r2, r3
 526 0130 14D2     		bcs	.L35
 105:main.c        ****             else ban_trig2=1;// si no, se activa la bandera  
 527              		.loc 1 105 0 is_stmt 0 discriminator 1
 528 0132 9B1A     		subs	r3, r3, r2
 529 0134 054A     		ldr	r2, .L39+16
 530 0136 D361     		str	r3, [r2, #28]
 531 0138 13E0     		b	.L36
 532              	.L40:
 533 013a 00BF     		.align	2
 534              	.L39:
 535 013c 00000000 		.word	ISR_Timer
 536 0140 00000000 		.word	Contador
 537 0144 00000000 		.word	Medicion_1
 538 0148 00000000 		.word	Medicion_2
 539 014c 00000000 		.word	.LANCHOR0
 540 0150 91000990 		.word	-1878458223
 541 0154 00000000 		.word	.LANCHOR1
 542 0158 C55A7C0A 		.word	175921861
 543              	.L35:
 106:main.c        ****             Reinit();// Funcion de reinicio de los valores 
 544              		.loc 1 106 0 is_stmt 1
 545 015c 0122     		movs	r2, #1
 546 015e A24B     		ldr	r3, .L41
 547 0160 9A70     		strb	r2, [r3, #2]
 548              	.L36:
 107:main.c        ****         }         
 549              		.loc 1 107 0
 550 0162 FFF7FEFF 		bl	Reinit
 551              	.LVL33:
 552              	.L34:
 110:main.c        ****         LCD_PrintString("A1:");
 553              		.loc 1 110 0
 554 0166 0021     		movs	r1, #0
 555 0168 0846     		mov	r0, r1
 556 016a FFF7FEFF 		bl	LCD_Position
 557              	.LVL34:
ARM GAS  C:\Users\Usuario\AppData\Local\Temp\ccwOwhII.s 			page 16


 111:main.c        ****         LCD_PrintNumber(Distancia1/10000);
 558              		.loc 1 111 0
 559 016e 9F48     		ldr	r0, .L41+4
 560 0170 FFF7FEFF 		bl	LCD_PrintString
 561              	.LVL35:
 112:main.c        ****         LCD_PutChar('.'); //en m con 4 decimales                  
 562              		.loc 1 112 0
 563 0174 9C4D     		ldr	r5, .L41
 564 0176 6869     		ldr	r0, [r5, #20]
 565 0178 DFF89092 		ldr	r9, .L41+36
 566 017c A9FB0030 		umull	r3, r0, r9, r0
 567 0180 C0F34F30 		ubfx	r0, r0, #13, #16
 568 0184 FFF7FEFF 		bl	LCD_PrintU32Number
 569              	.LVL36:
 113:main.c        ****         LCD_PrintNumber(Distancia1/1000%10);
 570              		.loc 1 113 0
 571 0188 2E20     		movs	r0, #46
 572 018a FFF7FEFF 		bl	LCD_PutChar
 573              	.LVL37:
 114:main.c        ****         LCD_PrintNumber(Distancia1/100%10);
 574              		.loc 1 114 0
 575 018e 6B69     		ldr	r3, [r5, #20]
 576 0190 DFF87C82 		ldr	r8, .L41+40
 577 0194 A8FB0323 		umull	r2, r3, r8, r3
 578 0198 9B09     		lsrs	r3, r3, #6
 579 019a 954C     		ldr	r4, .L41+8
 580 019c A4FB0320 		umull	r2, r0, r4, r3
 581 01a0 C008     		lsrs	r0, r0, #3
 582 01a2 00EB8000 		add	r0, r0, r0, lsl #2
 583 01a6 4200     		lsls	r2, r0, #1
 584 01a8 981A     		subs	r0, r3, r2
 585 01aa 80B2     		uxth	r0, r0
 586 01ac FFF7FEFF 		bl	LCD_PrintU32Number
 587              	.LVL38:
 115:main.c        ****         LCD_PrintNumber(Distancia1/10%10);
 588              		.loc 1 115 0
 589 01b0 6B69     		ldr	r3, [r5, #20]
 590 01b2 904F     		ldr	r7, .L41+12
 591 01b4 A7FB0323 		umull	r2, r3, r7, r3
 592 01b8 5B09     		lsrs	r3, r3, #5
 593 01ba A4FB0320 		umull	r2, r0, r4, r3
 594 01be C008     		lsrs	r0, r0, #3
 595 01c0 00EB8000 		add	r0, r0, r0, lsl #2
 596 01c4 4200     		lsls	r2, r0, #1
 597 01c6 981A     		subs	r0, r3, r2
 598 01c8 80B2     		uxth	r0, r0
 599 01ca FFF7FEFF 		bl	LCD_PrintU32Number
 600              	.LVL39:
 116:main.c        ****         LCD_PrintNumber(Distancia1%10);
 601              		.loc 1 116 0
 602 01ce 6B69     		ldr	r3, [r5, #20]
 603 01d0 A4FB0323 		umull	r2, r3, r4, r3
 604 01d4 DB08     		lsrs	r3, r3, #3
 605 01d6 A4FB0320 		umull	r2, r0, r4, r3
 606 01da C008     		lsrs	r0, r0, #3
 607 01dc 00EB8000 		add	r0, r0, r0, lsl #2
 608 01e0 4200     		lsls	r2, r0, #1
ARM GAS  C:\Users\Usuario\AppData\Local\Temp\ccwOwhII.s 			page 17


 609 01e2 981A     		subs	r0, r3, r2
 610 01e4 80B2     		uxth	r0, r0
 611 01e6 FFF7FEFF 		bl	LCD_PrintU32Number
 612              	.LVL40:
 117:main.c        ****         LCD_PrintString("m");
 613              		.loc 1 117 0
 614 01ea 6A69     		ldr	r2, [r5, #20]
 615 01ec A4FB0230 		umull	r3, r0, r4, r2
 616 01f0 C008     		lsrs	r0, r0, #3
 617 01f2 00EB8000 		add	r0, r0, r0, lsl #2
 618 01f6 4300     		lsls	r3, r0, #1
 619 01f8 D01A     		subs	r0, r2, r3
 620 01fa 80B2     		uxth	r0, r0
 621 01fc FFF7FEFF 		bl	LCD_PrintU32Number
 622              	.LVL41:
 118:main.c        ****         //Visualizacion de las altura o distancia de medicion 2
 623              		.loc 1 118 0
 624 0200 7D4E     		ldr	r6, .L41+16
 625 0202 3046     		mov	r0, r6
 626 0204 FFF7FEFF 		bl	LCD_PrintString
 627              	.LVL42:
 120:main.c        ****         LCD_PrintString("A2:");
 628              		.loc 1 120 0
 629 0208 0021     		movs	r1, #0
 630 020a 0120     		movs	r0, #1
 631 020c FFF7FEFF 		bl	LCD_Position
 632              	.LVL43:
 121:main.c        ****         LCD_PrintNumber(Distancia2/10000);
 633              		.loc 1 121 0
 634 0210 7A48     		ldr	r0, .L41+20
 635 0212 FFF7FEFF 		bl	LCD_PrintString
 636              	.LVL44:
 122:main.c        ****         LCD_PutChar('.');  //en m con 4 decimales                 
 637              		.loc 1 122 0
 638 0216 A869     		ldr	r0, [r5, #24]
 639 0218 A9FB0030 		umull	r3, r0, r9, r0
 640 021c C0F34F30 		ubfx	r0, r0, #13, #16
 641 0220 FFF7FEFF 		bl	LCD_PrintU32Number
 642              	.LVL45:
 123:main.c        ****         LCD_PrintNumber(Distancia2/1000%10);
 643              		.loc 1 123 0
 644 0224 2E20     		movs	r0, #46
 645 0226 FFF7FEFF 		bl	LCD_PutChar
 646              	.LVL46:
 124:main.c        ****         LCD_PrintNumber(Distancia2/100%10);
 647              		.loc 1 124 0
 648 022a AB69     		ldr	r3, [r5, #24]
 649 022c A8FB0323 		umull	r2, r3, r8, r3
 650 0230 9B09     		lsrs	r3, r3, #6
 651 0232 A4FB0320 		umull	r2, r0, r4, r3
 652 0236 C008     		lsrs	r0, r0, #3
 653 0238 00EB8000 		add	r0, r0, r0, lsl #2
 654 023c 4200     		lsls	r2, r0, #1
 655 023e 981A     		subs	r0, r3, r2
 656 0240 80B2     		uxth	r0, r0
 657 0242 FFF7FEFF 		bl	LCD_PrintU32Number
 658              	.LVL47:
ARM GAS  C:\Users\Usuario\AppData\Local\Temp\ccwOwhII.s 			page 18


 125:main.c        ****         LCD_PrintNumber(Distancia2/10%10);
 659              		.loc 1 125 0
 660 0246 AB69     		ldr	r3, [r5, #24]
 661 0248 A7FB0323 		umull	r2, r3, r7, r3
 662 024c 5B09     		lsrs	r3, r3, #5
 663 024e A4FB0320 		umull	r2, r0, r4, r3
 664 0252 C008     		lsrs	r0, r0, #3
 665 0254 00EB8000 		add	r0, r0, r0, lsl #2
 666 0258 4200     		lsls	r2, r0, #1
 667 025a 981A     		subs	r0, r3, r2
 668 025c 80B2     		uxth	r0, r0
 669 025e FFF7FEFF 		bl	LCD_PrintU32Number
 670              	.LVL48:
 126:main.c        ****         LCD_PrintNumber(Distancia2%10);
 671              		.loc 1 126 0
 672 0262 AB69     		ldr	r3, [r5, #24]
 673 0264 A4FB0323 		umull	r2, r3, r4, r3
 674 0268 DB08     		lsrs	r3, r3, #3
 675 026a A4FB0320 		umull	r2, r0, r4, r3
 676 026e C008     		lsrs	r0, r0, #3
 677 0270 00EB8000 		add	r0, r0, r0, lsl #2
 678 0274 4200     		lsls	r2, r0, #1
 679 0276 981A     		subs	r0, r3, r2
 680 0278 80B2     		uxth	r0, r0
 681 027a FFF7FEFF 		bl	LCD_PrintU32Number
 682              	.LVL49:
 127:main.c        ****         LCD_PrintString("m");       
 683              		.loc 1 127 0
 684 027e AA69     		ldr	r2, [r5, #24]
 685 0280 A4FB0230 		umull	r3, r0, r4, r2
 686 0284 C008     		lsrs	r0, r0, #3
 687 0286 00EB8000 		add	r0, r0, r0, lsl #2
 688 028a 4300     		lsls	r3, r0, #1
 689 028c D01A     		subs	r0, r2, r3
 690 028e 80B2     		uxth	r0, r0
 691 0290 FFF7FEFF 		bl	LCD_PrintU32Number
 692              	.LVL50:
 128:main.c        ****         LCD_Position(2,3);
 693              		.loc 1 128 0
 694 0294 3046     		mov	r0, r6
 695 0296 FFF7FEFF 		bl	LCD_PrintString
 696              	.LVL51:
 129:main.c        ****         //Visualizacion de las altura o distancia del objeto medido
 697              		.loc 1 129 0
 698 029a 0321     		movs	r1, #3
 699 029c 0220     		movs	r0, #2
 700 029e FFF7FEFF 		bl	LCD_Position
 701              	.LVL52:
 131:main.c        ****         LCD_Position(3,2);
 702              		.loc 1 131 0
 703 02a2 5748     		ldr	r0, .L41+24
 704 02a4 FFF7FEFF 		bl	LCD_PrintString
 705              	.LVL53:
 132:main.c        ****         LCD_PrintNumber(Distancia3/100);
 706              		.loc 1 132 0
 707 02a8 0221     		movs	r1, #2
 708 02aa 0320     		movs	r0, #3
ARM GAS  C:\Users\Usuario\AppData\Local\Temp\ccwOwhII.s 			page 19


 709 02ac FFF7FEFF 		bl	LCD_Position
 710              	.LVL54:
 133:main.c        ****         LCD_PutChar('.');//en cm con 2 decimales                   
 711              		.loc 1 133 0
 712 02b0 E869     		ldr	r0, [r5, #28]
 713 02b2 A7FB0030 		umull	r3, r0, r7, r0
 714 02b6 C0F34F10 		ubfx	r0, r0, #5, #16
 715 02ba FFF7FEFF 		bl	LCD_PrintU32Number
 716              	.LVL55:
 134:main.c        ****         LCD_PrintNumber(Distancia3/10%10);
 717              		.loc 1 134 0
 718 02be 2E20     		movs	r0, #46
 719 02c0 FFF7FEFF 		bl	LCD_PutChar
 720              	.LVL56:
 135:main.c        ****         LCD_PrintNumber(Distancia3%10);
 721              		.loc 1 135 0
 722 02c4 EB69     		ldr	r3, [r5, #28]
 723 02c6 A4FB0323 		umull	r2, r3, r4, r3
 724 02ca DB08     		lsrs	r3, r3, #3
 725 02cc A4FB0320 		umull	r2, r0, r4, r3
 726 02d0 C008     		lsrs	r0, r0, #3
 727 02d2 00EB8000 		add	r0, r0, r0, lsl #2
 728 02d6 4200     		lsls	r2, r0, #1
 729 02d8 981A     		subs	r0, r3, r2
 730 02da 80B2     		uxth	r0, r0
 731 02dc FFF7FEFF 		bl	LCD_PrintU32Number
 732              	.LVL57:
 136:main.c        ****         LCD_PrintString("cm");
 733              		.loc 1 136 0
 734 02e0 EA69     		ldr	r2, [r5, #28]
 735 02e2 A4FB0230 		umull	r3, r0, r4, r2
 736 02e6 C008     		lsrs	r0, r0, #3
 737 02e8 00EB8000 		add	r0, r0, r0, lsl #2
 738 02ec 4300     		lsls	r3, r0, #1
 739 02ee D01A     		subs	r0, r2, r3
 740 02f0 80B2     		uxth	r0, r0
 741 02f2 FFF7FEFF 		bl	LCD_PrintU32Number
 742              	.LVL58:
 137:main.c        ****         LCD_PutChar('-');
 743              		.loc 1 137 0
 744 02f6 4348     		ldr	r0, .L41+28
 745 02f8 FFF7FEFF 		bl	LCD_PrintString
 746              	.LVL59:
 138:main.c        ****         LCD_PrintNumber(Distancia3/10000);
 747              		.loc 1 138 0
 748 02fc 2D20     		movs	r0, #45
 749 02fe FFF7FEFF 		bl	LCD_PutChar
 750              	.LVL60:
 139:main.c        ****         LCD_PutChar('.');//en m con 4 decimales               
 751              		.loc 1 139 0
 752 0302 E869     		ldr	r0, [r5, #28]
 753 0304 A9FB0030 		umull	r3, r0, r9, r0
 754 0308 C0F34F30 		ubfx	r0, r0, #13, #16
 755 030c FFF7FEFF 		bl	LCD_PrintU32Number
 756              	.LVL61:
 140:main.c        ****         LCD_PrintNumber(Distancia3/1000%10);
 757              		.loc 1 140 0
ARM GAS  C:\Users\Usuario\AppData\Local\Temp\ccwOwhII.s 			page 20


 758 0310 2E20     		movs	r0, #46
 759 0312 FFF7FEFF 		bl	LCD_PutChar
 760              	.LVL62:
 141:main.c        ****         LCD_PrintNumber(Distancia3/100%10);
 761              		.loc 1 141 0
 762 0316 EB69     		ldr	r3, [r5, #28]
 763 0318 A8FB0338 		umull	r3, r8, r8, r3
 764 031c 4FEA9818 		lsr	r8, r8, #6
 765 0320 A4FB0830 		umull	r3, r0, r4, r8
 766 0324 C008     		lsrs	r0, r0, #3
 767 0326 00EB8000 		add	r0, r0, r0, lsl #2
 768 032a 4300     		lsls	r3, r0, #1
 769 032c C3EB0800 		rsb	r0, r3, r8
 770 0330 80B2     		uxth	r0, r0
 771 0332 FFF7FEFF 		bl	LCD_PrintU32Number
 772              	.LVL63:
 142:main.c        ****         LCD_PrintNumber(Distancia3/10%10);
 773              		.loc 1 142 0
 774 0336 EB69     		ldr	r3, [r5, #28]
 775 0338 A7FB0337 		umull	r3, r7, r7, r3
 776 033c 7F09     		lsrs	r7, r7, #5
 777 033e A4FB0730 		umull	r3, r0, r4, r7
 778 0342 C008     		lsrs	r0, r0, #3
 779 0344 00EB8000 		add	r0, r0, r0, lsl #2
 780 0348 4300     		lsls	r3, r0, #1
 781 034a F81A     		subs	r0, r7, r3
 782 034c 80B2     		uxth	r0, r0
 783 034e FFF7FEFF 		bl	LCD_PrintU32Number
 784              	.LVL64:
 143:main.c        ****         LCD_PrintNumber(Distancia3%10);
 785              		.loc 1 143 0
 786 0352 EB69     		ldr	r3, [r5, #28]
 787 0354 A4FB0323 		umull	r2, r3, r4, r3
 788 0358 DB08     		lsrs	r3, r3, #3
 789 035a A4FB0320 		umull	r2, r0, r4, r3
 790 035e C008     		lsrs	r0, r0, #3
 791 0360 00EB8000 		add	r0, r0, r0, lsl #2
 792 0364 4200     		lsls	r2, r0, #1
 793 0366 981A     		subs	r0, r3, r2
 794 0368 80B2     		uxth	r0, r0
 795 036a FFF7FEFF 		bl	LCD_PrintU32Number
 796              	.LVL65:
 144:main.c        ****         LCD_PrintString("m");
 797              		.loc 1 144 0
 798 036e EA69     		ldr	r2, [r5, #28]
 799 0370 A4FB0230 		umull	r3, r0, r4, r2
 800 0374 C008     		lsrs	r0, r0, #3
 801 0376 00EB8000 		add	r0, r0, r0, lsl #2
 802 037a 4300     		lsls	r3, r0, #1
 803 037c D01A     		subs	r0, r2, r3
 804 037e 80B2     		uxth	r0, r0
 805 0380 FFF7FEFF 		bl	LCD_PrintU32Number
 806              	.LVL66:
 145:main.c        ****         //Visualizacion de la temperatura 
 807              		.loc 1 145 0
 808 0384 3046     		mov	r0, r6
 809 0386 FFF7FEFF 		bl	LCD_PrintString
ARM GAS  C:\Users\Usuario\AppData\Local\Temp\ccwOwhII.s 			page 21


 810              	.LVL67:
 147:main.c        ****         LCD_PrintString("Temp:");
 811              		.loc 1 147 0
 812 038a 0D21     		movs	r1, #13
 813 038c 0020     		movs	r0, #0
 814 038e FFF7FEFF 		bl	LCD_Position
 815              	.LVL68:
 148:main.c        ****         LCD_Position(1,13);  
 816              		.loc 1 148 0
 817 0392 1D48     		ldr	r0, .L41+32
 818 0394 FFF7FEFF 		bl	LCD_PrintString
 819              	.LVL69:
 149:main.c        ****         LCD_PrintNumber(Temperatura/10);                  
 820              		.loc 1 149 0
 821 0398 0D21     		movs	r1, #13
 822 039a 0120     		movs	r0, #1
 823 039c FFF7FEFF 		bl	LCD_Position
 824              	.LVL70:
 150:main.c        ****         LCD_PutChar('.');// en ºc con 1 decimal                  
 825              		.loc 1 150 0
 826 03a0 686B     		ldr	r0, [r5, #52]
 827 03a2 A4FB0030 		umull	r3, r0, r4, r0
 828 03a6 C0F3CF00 		ubfx	r0, r0, #3, #16
 829 03aa FFF7FEFF 		bl	LCD_PrintU32Number
 830              	.LVL71:
 151:main.c        ****         LCD_PrintNumber(Temperatura%10);
 831              		.loc 1 151 0
 832 03ae 2E20     		movs	r0, #46
 833 03b0 FFF7FEFF 		bl	LCD_PutChar
 834              	.LVL72:
 152:main.c        ****         LCD_PutChar(0xDF);
 835              		.loc 1 152 0
 836 03b4 6B6B     		ldr	r3, [r5, #52]
 837 03b6 A4FB0320 		umull	r2, r0, r4, r3
 838 03ba C008     		lsrs	r0, r0, #3
 839 03bc 00EB8000 		add	r0, r0, r0, lsl #2
 840 03c0 4400     		lsls	r4, r0, #1
 841 03c2 181B     		subs	r0, r3, r4
 842 03c4 80B2     		uxth	r0, r0
 843 03c6 FFF7FEFF 		bl	LCD_PrintU32Number
 844              	.LVL73:
 153:main.c        ****         LCD_PutChar('C');
 845              		.loc 1 153 0
 846 03ca DF20     		movs	r0, #223
 847 03cc FFF7FEFF 		bl	LCD_PutChar
 848              	.LVL74:
 154:main.c        ****         CyDelay(500);
 849              		.loc 1 154 0
 850 03d0 4320     		movs	r0, #67
 851 03d2 FFF7FEFF 		bl	LCD_PutChar
 852              	.LVL75:
 155:main.c        ****         LCD_ClearDisplay();       
 853              		.loc 1 155 0
 854 03d6 4FF4FA70 		mov	r0, #500
 855 03da FFF7FEFF 		bl	CyDelay
 856              	.LVL76:
 156:main.c        ****    }
ARM GAS  C:\Users\Usuario\AppData\Local\Temp\ccwOwhII.s 			page 22


 857              		.loc 1 156 0
 858 03de 0120     		movs	r0, #1
 859 03e0 FFF7FEFF 		bl	LCD_WriteControl
 860              	.LVL77:
 157:main.c        **** }
 861              		.loc 1 157 0
 862 03e4 28E6     		b	.L37
 863              	.L42:
 864 03e6 00BF     		.align	2
 865              	.L41:
 866 03e8 00000000 		.word	.LANCHOR0
 867 03ec 00000000 		.word	.LC0
 868 03f0 CDCCCCCC 		.word	-858993459
 869 03f4 1F85EB51 		.word	1374389535
 870 03f8 04000000 		.word	.LC1
 871 03fc 08000000 		.word	.LC2
 872 0400 0C000000 		.word	.LC3
 873 0404 1C000000 		.word	.LC4
 874 0408 20000000 		.word	.LC5
 875 040c 5917B7D1 		.word	-776530087
 876 0410 D34D6210 		.word	274877907
 877              		.cfi_endproc
 878              	.LFE63:
 879              		.size	main, .-main
 880              		.global	cont
 881              		.global	CiclosDureza
 882              		.global	ovf2
 883              		.global	ovf1
 884              		.global	valor3
 885              		.global	valor2
 886              		.global	valor1
 887              		.global	Calculos
 888              		.global	Distancia3
 889              		.global	Distancia2
 890              		.global	Distancia1
 891              		.global	Distancia
 892              		.global	Velocidad
 893              		.global	ban_trig2
 894              		.global	ban_trig1
 895              		.global	ban_M22
 896              		.global	ban_M11
 897              		.global	ban_M2
 898              		.global	ban_M1
 899              		.global	Count_M2
 900              		.global	Count_M1
 901              		.global	status
 902              		.global	Temperatura
 903              		.global	VALADC
 904              		.data
 905              		.set	.LANCHOR1,. + 0
 906              		.type	status, %object
 907              		.size	status, 1
 908              	status:
 909 0000 01       		.byte	1
 910              		.type	Calculos, %object
 911              		.size	Calculos, 1
 912              	Calculos:
ARM GAS  C:\Users\Usuario\AppData\Local\Temp\ccwOwhII.s 			page 23


 913 0001 01       		.byte	1
 914              		.section	.rodata.str1.4,"aMS",%progbits,1
 915              		.align	2
 916              	.LC0:
 917 0000 41313A00 		.ascii	"A1:\000"
 918              	.LC1:
 919 0004 6D00     		.ascii	"m\000"
 920 0006 0000     		.space	2
 921              	.LC2:
 922 0008 41323A00 		.ascii	"A2:\000"
 923              	.LC3:
 924 000c 416C7475 		.ascii	"Altura objeto:\000"
 924      7261206F 
 924      626A6574 
 924      6F3A00
 925 001b 00       		.space	1
 926              	.LC4:
 927 001c 636D00   		.ascii	"cm\000"
 928 001f 00       		.space	1
 929              	.LC5:
 930 0020 54656D70 		.ascii	"Temp:\000"
 930      3A00
 931              		.bss
 932              		.align	2
 933              		.set	.LANCHOR0,. + 0
 934              		.type	ban_trig1, %object
 935              		.size	ban_trig1, 1
 936              	ban_trig1:
 937 0000 00       		.space	1
 938              		.type	ban_M11, %object
 939              		.size	ban_M11, 1
 940              	ban_M11:
 941 0001 00       		.space	1
 942              		.type	ban_trig2, %object
 943              		.size	ban_trig2, 1
 944              	ban_trig2:
 945 0002 00       		.space	1
 946              		.type	ban_M22, %object
 947              		.size	ban_M22, 1
 948              	ban_M22:
 949 0003 00       		.space	1
 950              		.type	cont, %object
 951              		.size	cont, 1
 952              	cont:
 953 0004 00       		.space	1
 954              		.type	ovf1, %object
 955              		.size	ovf1, 1
 956              	ovf1:
 957 0005 00       		.space	1
 958              		.type	ovf2, %object
 959              		.size	ovf2, 1
 960              	ovf2:
 961 0006 00       		.space	1
 962 0007 00       		.space	1
 963              		.type	valor1, %object
 964              		.size	valor1, 4
 965              	valor1:
ARM GAS  C:\Users\Usuario\AppData\Local\Temp\ccwOwhII.s 			page 24


 966 0008 00000000 		.space	4
 967              		.type	valor2, %object
 968              		.size	valor2, 4
 969              	valor2:
 970 000c 00000000 		.space	4
 971              		.type	valor3, %object
 972              		.size	valor3, 4
 973              	valor3:
 974 0010 00000000 		.space	4
 975              		.type	Distancia1, %object
 976              		.size	Distancia1, 4
 977              	Distancia1:
 978 0014 00000000 		.space	4
 979              		.type	Distancia2, %object
 980              		.size	Distancia2, 4
 981              	Distancia2:
 982 0018 00000000 		.space	4
 983              		.type	Distancia3, %object
 984              		.size	Distancia3, 4
 985              	Distancia3:
 986 001c 00000000 		.space	4
 987              		.type	Count_M1, %object
 988              		.size	Count_M1, 2
 989              	Count_M1:
 990 0020 0000     		.space	2
 991              		.type	Count_M2, %object
 992              		.size	Count_M2, 2
 993              	Count_M2:
 994 0022 0000     		.space	2
 995              		.type	ban_M1, %object
 996              		.size	ban_M1, 1
 997              	ban_M1:
 998 0024 00       		.space	1
 999              		.type	ban_M2, %object
 1000              		.size	ban_M2, 1
 1001              	ban_M2:
 1002 0025 00       		.space	1
 1003 0026 0000     		.space	2
 1004              		.type	Distancia, %object
 1005              		.size	Distancia, 4
 1006              	Distancia:
 1007 0028 00000000 		.space	4
 1008              		.type	CiclosDureza, %object
 1009              		.size	CiclosDureza, 4
 1010              	CiclosDureza:
 1011 002c 00000000 		.space	4
 1012              		.type	VALADC, %object
 1013              		.size	VALADC, 2
 1014              	VALADC:
 1015 0030 0000     		.space	2
 1016 0032 0000     		.space	2
 1017              		.type	Temperatura, %object
 1018              		.size	Temperatura, 4
 1019              	Temperatura:
 1020 0034 00000000 		.space	4
 1021              		.type	Velocidad, %object
 1022              		.size	Velocidad, 4
ARM GAS  C:\Users\Usuario\AppData\Local\Temp\ccwOwhII.s 			page 25


 1023              	Velocidad:
 1024 0038 00000000 		.space	4
 1025              		.text
 1026              	.Letext0:
 1027              		.file 2 "c:\\program files (x86)\\cypress\\psoc creator\\4.4\\psoc creator\\import\\gnu\\arm\\5.4.
 1028              		.file 3 "c:\\program files (x86)\\cypress\\psoc creator\\4.4\\psoc creator\\import\\gnu\\arm\\5.4.
 1029              		.file 4 "Generated_Source\\PSoC5/cytypes.h"
 1030              		.file 5 "Generated_Source\\PSoC5/core_cm3.h"
 1031              		.file 6 "Generated_Source\\PSoC5/Timer.h"
 1032              		.file 7 "Generated_Source\\PSoC5/Boton2_isr.h"
 1033              		.file 8 "Generated_Source\\PSoC5/PWM.h"
 1034              		.file 9 "Generated_Source\\PSoC5/Pin.h"
 1035              		.file 10 "Generated_Source\\PSoC5/Boton1_isr.h"
 1036              		.file 11 "Generated_Source\\PSoC5/LCD.h"
 1037              		.file 12 "Generated_Source\\PSoC5/ADC.h"
 1038              		.file 13 "Generated_Source\\PSoC5/Counter.h"
 1039              		.file 14 "Generated_Source\\PSoC5/Timer_isr.h"
 1040              		.file 15 "Generated_Source\\PSoC5/Contador_isr.h"
 1041              		.file 16 "Generated_Source\\PSoC5/Opamp.h"
 1042              		.file 17 "Generated_Source\\PSoC5/CyLib.h"